                                      1 ;--------------------------------------------------------
                                      2 ; File Created by SDCC : free open source ANSI-C Compiler
                                      3 ; Version 3.6.0 #9615 (MINGW64)
                                      4 ;--------------------------------------------------------
                                      5 	.module lcd5110
                                      6 	.optsdcc -mstm8
                                      7 	
                                      8 ;--------------------------------------------------------
                                      9 ; Public variables in this module
                                     10 ;--------------------------------------------------------
                                     11 	.globl _memset
                                     12 	.globl _memcpy
                                     13 	.globl _GPIO_WriteLow
                                     14 	.globl _GPIO_WriteHigh
                                     15 	.globl _LcdInit
                                     16 	.globl _LcdClear
                                     17 	.globl _LcdUpdate
                                     18 	.globl _LcdContrast
                                     19 	.globl _LcdGotoXYFont
                                     20 	.globl _LcdChar
                                     21 	.globl _LcdStr
                                     22 	.globl _LcdFStr
                                     23 	.globl _LcdPixel
                                     24 	.globl _LcdLine
                                     25 	.globl _LcdCircle
                                     26 	.globl _LcdRect
                                     27 	.globl _LcdImage
                                     28 ;--------------------------------------------------------
                                     29 ; ram data
                                     30 ;--------------------------------------------------------
                                     31 	.area DATA
      000000                         32 _LcdCache:
      000000                         33 	.ds 504
      0001F8                         34 _BottomCacheMark:
      0001F8                         35 	.ds 2
      0001FA                         36 _TopCacheMark:
      0001FA                         37 	.ds 2
      0001FC                         38 _LcdCacheIdx:
      0001FC                         39 	.ds 2
                                     40 ;--------------------------------------------------------
                                     41 ; ram data
                                     42 ;--------------------------------------------------------
                                     43 	.area INITIALIZED
                                     44 ;--------------------------------------------------------
                                     45 ; absolute external ram data
                                     46 ;--------------------------------------------------------
                                     47 	.area DABS (ABS)
                                     48 ;--------------------------------------------------------
                                     49 ; global & static initialisations
                                     50 ;--------------------------------------------------------
                                     51 	.area HOME
                                     52 	.area GSINIT
                                     53 	.area GSFINAL
                                     54 	.area GSINIT
                                     55 ;--------------------------------------------------------
                                     56 ; Home
                                     57 ;--------------------------------------------------------
                                     58 	.area HOME
                                     59 	.area HOME
                                     60 ;--------------------------------------------------------
                                     61 ; code
                                     62 ;--------------------------------------------------------
                                     63 	.area CODE
                                     64 ;	user/lcd5110.c: 17: void LcdInit(void)
                                     65 ;	-----------------------------------------
                                     66 ;	 function LcdInit
                                     67 ;	-----------------------------------------
      000000                         68 _LcdInit:
                                     69 ;	user/lcd5110.c: 21: SET_RST;
      000000 4B 02            [ 1]   70 	push	#0x02
      000002 4B 0F            [ 1]   71 	push	#0x0f
      000004 4B 50            [ 1]   72 	push	#0x50
      000006 CDr00r00         [ 4]   73 	call	_GPIO_WriteHigh
      000009 5B 03            [ 2]   74 	addw	sp, #3
                                     75 ;	user/lcd5110.c: 22: RESET_DC;
      00000B 4B 08            [ 1]   76 	push	#0x08
      00000D 4B 0F            [ 1]   77 	push	#0x0f
      00000F 4B 50            [ 1]   78 	push	#0x50
      000011 CDr00r00         [ 4]   79 	call	_GPIO_WriteLow
      000014 5B 03            [ 2]   80 	addw	sp, #3
                                     81 ;	user/lcd5110.c: 23: RESET_CE;
      000016 4B 04            [ 1]   82 	push	#0x04
      000018 4B 0F            [ 1]   83 	push	#0x0f
      00001A 4B 50            [ 1]   84 	push	#0x50
      00001C CDr00r00         [ 4]   85 	call	_GPIO_WriteLow
      00001F 5B 03            [ 2]   86 	addw	sp, #3
                                     87 ;	user/lcd5110.c: 24: RESET_SDIN;
      000021 4B 40            [ 1]   88 	push	#0x40
      000023 4B 0A            [ 1]   89 	push	#0x0a
      000025 4B 50            [ 1]   90 	push	#0x50
      000027 CDr00r00         [ 4]   91 	call	_GPIO_WriteLow
      00002A 5B 03            [ 2]   92 	addw	sp, #3
                                     93 ;	user/lcd5110.c: 25: RESET_SCLK;
      00002C 4B 20            [ 1]   94 	push	#0x20
      00002E 4B 0A            [ 1]   95 	push	#0x0a
      000030 4B 50            [ 1]   96 	push	#0x50
      000032 CDr00r00         [ 4]   97 	call	_GPIO_WriteLow
      000035 5B 03            [ 2]   98 	addw	sp, #3
                                     99 ;	user/lcd5110.c: 28: RESET_RST;
      000037 4B 02            [ 1]  100 	push	#0x02
      000039 4B 0F            [ 1]  101 	push	#0x0f
      00003B 4B 50            [ 1]  102 	push	#0x50
      00003D CDr00r00         [ 4]  103 	call	_GPIO_WriteLow
      000040 5B 03            [ 2]  104 	addw	sp, #3
                                    105 ;	user/lcd5110.c: 29: SET_RST;
      000042 4B 02            [ 1]  106 	push	#0x02
      000044 4B 0F            [ 1]  107 	push	#0x0f
      000046 4B 50            [ 1]  108 	push	#0x50
      000048 CDr00r00         [ 4]  109 	call	_GPIO_WriteHigh
      00004B 5B 03            [ 2]  110 	addw	sp, #3
                                    111 ;	user/lcd5110.c: 32: SET_CE;
      00004D 4B 04            [ 1]  112 	push	#0x04
      00004F 4B 0F            [ 1]  113 	push	#0x0f
      000051 4B 50            [ 1]  114 	push	#0x50
      000053 CDr00r00         [ 4]  115 	call	_GPIO_WriteHigh
      000056 5B 03            [ 2]  116 	addw	sp, #3
                                    117 ;	user/lcd5110.c: 35: LcdSend(0x21, LCD_CMD); // LCD Extended Commands
      000058 4B 00            [ 1]  118 	push	#0x00
      00005A 4B 21            [ 1]  119 	push	#0x21
      00005C CDr01r8A         [ 4]  120 	call	_LcdSend
      00005F 85               [ 2]  121 	popw	x
                                    122 ;	user/lcd5110.c: 36: LcdSend(0xC8, LCD_CMD); // Set Contrast (LCD Vop)
      000060 4B 00            [ 1]  123 	push	#0x00
      000062 4B C8            [ 1]  124 	push	#0xc8
      000064 CDr01r8A         [ 4]  125 	call	_LcdSend
      000067 85               [ 2]  126 	popw	x
                                    127 ;	user/lcd5110.c: 37: LcdSend(0x06, LCD_CMD); // Set Temperature coefficent
      000068 4B 00            [ 1]  128 	push	#0x00
      00006A 4B 06            [ 1]  129 	push	#0x06
      00006C CDr01r8A         [ 4]  130 	call	_LcdSend
      00006F 85               [ 2]  131 	popw	x
                                    132 ;	user/lcd5110.c: 38: LcdSend(0x13, LCD_CMD); // LCD bias mode 1:48
      000070 4B 00            [ 1]  133 	push	#0x00
      000072 4B 13            [ 1]  134 	push	#0x13
      000074 CDr01r8A         [ 4]  135 	call	_LcdSend
      000077 85               [ 2]  136 	popw	x
                                    137 ;	user/lcd5110.c: 39: LcdSend(0x20, LCD_CMD); // LCD Standard Commands and Horizontal addressing mode
      000078 4B 00            [ 1]  138 	push	#0x00
      00007A 4B 20            [ 1]  139 	push	#0x20
      00007C CDr01r8A         [ 4]  140 	call	_LcdSend
      00007F 85               [ 2]  141 	popw	x
                                    142 ;	user/lcd5110.c: 40: LcdSend(0x0C, LCD_CMD); // LCD in normal mode
      000080 4B 00            [ 1]  143 	push	#0x00
      000082 4B 0C            [ 1]  144 	push	#0x0c
      000084 CDr01r8A         [ 4]  145 	call	_LcdSend
      000087 85               [ 2]  146 	popw	x
                                    147 ;	user/lcd5110.c: 43: LcdClear();
      000088 CDr00r8E         [ 4]  148 	call	_LcdClear
                                    149 ;	user/lcd5110.c: 44: LcdUpdate();
      00008B CCr00rAA         [ 2]  150 	jp	_LcdUpdate
                                    151 ;	user/lcd5110.c: 47: void LcdClear(void)
                                    152 ;	-----------------------------------------
                                    153 ;	 function LcdClear
                                    154 ;	-----------------------------------------
      00008E                        155 _LcdClear:
                                    156 ;	user/lcd5110.c: 50: memset(LcdCache, 0x00, LCD_CACHE_SIZE);
      00008E AEr00r00         [ 2]  157 	ldw	x, #_LcdCache+0
      000091 4B F8            [ 1]  158 	push	#0xf8
      000093 4B 01            [ 1]  159 	push	#0x01
      000095 4B 00            [ 1]  160 	push	#0x00
      000097 4B 00            [ 1]  161 	push	#0x00
      000099 89               [ 2]  162 	pushw	x
      00009A CDr00r00         [ 4]  163 	call	_memset
      00009D 5B 06            [ 2]  164 	addw	sp, #6
                                    165 ;	user/lcd5110.c: 52: BottomCacheMark = 0;
      00009F 5F               [ 1]  166 	clrw	x
      0000A0 CFu01uF8         [ 2]  167 	ldw	_BottomCacheMark+0, x
                                    168 ;	user/lcd5110.c: 53: TopCacheMark = LCD_CACHE_SIZE - 1;
      0000A3 AE 01 F7         [ 2]  169 	ldw	x, #0x01f7
      0000A6 CFu01uFA         [ 2]  170 	ldw	_TopCacheMark+0, x
      0000A9 81               [ 4]  171 	ret
                                    172 ;	user/lcd5110.c: 56: void LcdUpdate(void)
                                    173 ;	-----------------------------------------
                                    174 ;	 function LcdUpdate
                                    175 ;	-----------------------------------------
      0000AA                        176 _LcdUpdate:
      0000AA 52 04            [ 2]  177 	sub	sp, #4
                                    178 ;	user/lcd5110.c: 59: if(BottomCacheMark < 0) BottomCacheMark = 0;
      0000AC CEu01uF8         [ 2]  179 	ldw	x, _BottomCacheMark+0
      0000AF 5D               [ 2]  180 	tnzw	x
      0000B0 2A 06            [ 1]  181 	jrpl	00104$
      0000B2 5F               [ 1]  182 	clrw	x
      0000B3 CFu01uF8         [ 2]  183 	ldw	_BottomCacheMark+0, x
      0000B6 20 0E            [ 2]  184 	jra	00105$
      0000B8                        185 00104$:
                                    186 ;	user/lcd5110.c: 60: else if(BottomCacheMark >= LCD_CACHE_SIZE) BottomCacheMark = LCD_CACHE_SIZE - 1;
      0000B8 CEu01uF8         [ 2]  187 	ldw	x, _BottomCacheMark+0
      0000BB A3 01 F8         [ 2]  188 	cpw	x, #0x01f8
      0000BE 2F 06            [ 1]  189 	jrslt	00105$
      0000C0 AE 01 F7         [ 2]  190 	ldw	x, #0x01f7
      0000C3 CFu01uF8         [ 2]  191 	ldw	_BottomCacheMark+0, x
      0000C6                        192 00105$:
                                    193 ;	user/lcd5110.c: 61: if(TopCacheMark < 0) TopCacheMark = 0;
      0000C6 CEu01uFA         [ 2]  194 	ldw	x, _TopCacheMark+0
      0000C9 5D               [ 2]  195 	tnzw	x
      0000CA 2A 06            [ 1]  196 	jrpl	00109$
      0000CC 5F               [ 1]  197 	clrw	x
      0000CD CFu01uFA         [ 2]  198 	ldw	_TopCacheMark+0, x
      0000D0 20 0E            [ 2]  199 	jra	00110$
      0000D2                        200 00109$:
                                    201 ;	user/lcd5110.c: 62: else if(TopCacheMark >= LCD_CACHE_SIZE) TopCacheMark = LCD_CACHE_SIZE - 1;
      0000D2 CEu01uFA         [ 2]  202 	ldw	x, _TopCacheMark+0
      0000D5 A3 01 F8         [ 2]  203 	cpw	x, #0x01f8
      0000D8 2F 06            [ 1]  204 	jrslt	00110$
      0000DA AE 01 F7         [ 2]  205 	ldw	x, #0x01f7
      0000DD CFu01uFA         [ 2]  206 	ldw	_TopCacheMark+0, x
      0000E0                        207 00110$:
                                    208 ;	user/lcd5110.c: 65: LcdSend(0x80 | (BottomCacheMark % LCD_X_RES), LCD_CMD);
      0000E0 4B 54            [ 1]  209 	push	#0x54
      0000E2 4B 00            [ 1]  210 	push	#0x00
      0000E4 CEu01uF8         [ 2]  211 	ldw	x, _BottomCacheMark+0
      0000E7 89               [ 2]  212 	pushw	x
      0000E8 CDr00r00         [ 4]  213 	call	__modsint
      0000EB 5B 04            [ 2]  214 	addw	sp, #4
      0000ED 9F               [ 1]  215 	ld	a, xl
      0000EE AA 80            [ 1]  216 	or	a, #0x80
      0000F0 88               [ 1]  217 	push	a
      0000F1 84               [ 1]  218 	pop	a
      0000F2 4B 00            [ 1]  219 	push	#0x00
      0000F4 88               [ 1]  220 	push	a
      0000F5 CDr01r8A         [ 4]  221 	call	_LcdSend
      0000F8 85               [ 2]  222 	popw	x
                                    223 ;	user/lcd5110.c: 66: LcdSend(0x40 | (BottomCacheMark / LCD_X_RES), LCD_CMD);
      0000F9 4B 54            [ 1]  224 	push	#0x54
      0000FB 4B 00            [ 1]  225 	push	#0x00
      0000FD CEu01uF8         [ 2]  226 	ldw	x, _BottomCacheMark+0
      000100 89               [ 2]  227 	pushw	x
      000101 CDr00r00         [ 4]  228 	call	__divsint
      000104 5B 04            [ 2]  229 	addw	sp, #4
      000106 9F               [ 1]  230 	ld	a, xl
      000107 AA 40            [ 1]  231 	or	a, #0x40
      000109 88               [ 1]  232 	push	a
      00010A 84               [ 1]  233 	pop	a
      00010B 4B 00            [ 1]  234 	push	#0x00
      00010D 88               [ 1]  235 	push	a
      00010E CDr01r8A         [ 4]  236 	call	_LcdSend
      000111 85               [ 2]  237 	popw	x
                                    238 ;	user/lcd5110.c: 69: for (i = BottomCacheMark; i <= TopCacheMark; i++)
      000112 CEu01uF8         [ 2]  239 	ldw	x, _BottomCacheMark+0
      000115 90 AEr00r00      [ 2]  240 	ldw	y, #_LcdCache+0
      000119 17 01            [ 2]  241 	ldw	(0x01, sp), y
      00011B 1F 03            [ 2]  242 	ldw	(0x03, sp), x
      00011D                        243 00113$:
      00011D 1E 03            [ 2]  244 	ldw	x, (0x03, sp)
      00011F C3u01uFA         [ 2]  245 	cpw	x, _TopCacheMark+0
      000122 2C 14            [ 1]  246 	jrsgt	00111$
                                    247 ;	user/lcd5110.c: 71: LcdSend(LcdCache[i], LCD_DATA);
      000124 1E 01            [ 2]  248 	ldw	x, (0x01, sp)
      000126 72 FB 03         [ 2]  249 	addw	x, (0x03, sp)
      000129 F6               [ 1]  250 	ld	a, (x)
      00012A 4B 01            [ 1]  251 	push	#0x01
      00012C 88               [ 1]  252 	push	a
      00012D CDr01r8A         [ 4]  253 	call	_LcdSend
      000130 85               [ 2]  254 	popw	x
                                    255 ;	user/lcd5110.c: 69: for (i = BottomCacheMark; i <= TopCacheMark; i++)
      000131 1E 03            [ 2]  256 	ldw	x, (0x03, sp)
      000133 5C               [ 2]  257 	incw	x
      000134 1F 03            [ 2]  258 	ldw	(0x03, sp), x
      000136 20 E5            [ 2]  259 	jra	00113$
      000138                        260 00111$:
                                    261 ;	user/lcd5110.c: 75: BottomCacheMark = LCD_CACHE_SIZE - 1;
      000138 AE 01 F7         [ 2]  262 	ldw	x, #0x01f7
      00013B CFu01uF8         [ 2]  263 	ldw	_BottomCacheMark+0, x
                                    264 ;	user/lcd5110.c: 76: TopCacheMark = 0;
      00013E 5F               [ 1]  265 	clrw	x
      00013F CFu01uFA         [ 2]  266 	ldw	_TopCacheMark+0, x
      000142 5B 04            [ 2]  267 	addw	sp, #4
      000144 81               [ 4]  268 	ret
                                    269 ;	user/lcd5110.c: 80: static void LcdVSPI(uint8_t data)
                                    270 ;	-----------------------------------------
                                    271 ;	 function LcdVSPI
                                    272 ;	-----------------------------------------
      000145                        273 _LcdVSPI:
      000145 88               [ 1]  274 	push	a
                                    275 ;	user/lcd5110.c: 83: for(i = 0; i < 8; i++, data = data << 1)
      000146 0F 01            [ 1]  276 	clr	(0x01, sp)
      000148                        277 00105$:
                                    278 ;	user/lcd5110.c: 85: if((data & 0x80) == 0x80) SET_SDIN;
      000148 7B 04            [ 1]  279 	ld	a, (0x04, sp)
      00014A A4 80            [ 1]  280 	and	a, #0x80
      00014C A1 80            [ 1]  281 	cp	a, #0x80
      00014E 26 0D            [ 1]  282 	jrne	00102$
      000150 4B 40            [ 1]  283 	push	#0x40
      000152 4B 0A            [ 1]  284 	push	#0x0a
      000154 4B 50            [ 1]  285 	push	#0x50
      000156 CDr00r00         [ 4]  286 	call	_GPIO_WriteHigh
      000159 5B 03            [ 2]  287 	addw	sp, #3
      00015B 20 0B            [ 2]  288 	jra	00103$
      00015D                        289 00102$:
                                    290 ;	user/lcd5110.c: 86: else RESET_SDIN;
      00015D 4B 40            [ 1]  291 	push	#0x40
      00015F 4B 0A            [ 1]  292 	push	#0x0a
      000161 4B 50            [ 1]  293 	push	#0x50
      000163 CDr00r00         [ 4]  294 	call	_GPIO_WriteLow
      000166 5B 03            [ 2]  295 	addw	sp, #3
      000168                        296 00103$:
                                    297 ;	user/lcd5110.c: 87: SET_SCLK;
      000168 4B 20            [ 1]  298 	push	#0x20
      00016A 4B 0A            [ 1]  299 	push	#0x0a
      00016C 4B 50            [ 1]  300 	push	#0x50
      00016E CDr00r00         [ 4]  301 	call	_GPIO_WriteHigh
      000171 5B 03            [ 2]  302 	addw	sp, #3
                                    303 ;	user/lcd5110.c: 88: RESET_SCLK;
      000173 4B 20            [ 1]  304 	push	#0x20
      000175 4B 0A            [ 1]  305 	push	#0x0a
      000177 4B 50            [ 1]  306 	push	#0x50
      000179 CDr00r00         [ 4]  307 	call	_GPIO_WriteLow
      00017C 5B 03            [ 2]  308 	addw	sp, #3
                                    309 ;	user/lcd5110.c: 83: for(i = 0; i < 8; i++, data = data << 1)
      00017E 0C 01            [ 1]  310 	inc	(0x01, sp)
      000180 08 04            [ 1]  311 	sll	(0x04, sp)
      000182 7B 01            [ 1]  312 	ld	a, (0x01, sp)
      000184 A1 08            [ 1]  313 	cp	a, #0x08
      000186 25 C0            [ 1]  314 	jrc	00105$
      000188 84               [ 1]  315 	pop	a
      000189 81               [ 4]  316 	ret
                                    317 ;	user/lcd5110.c: 93: static void LcdSend(uint8_t data, uint8_t cmd)
                                    318 ;	-----------------------------------------
                                    319 ;	 function LcdSend
                                    320 ;	-----------------------------------------
      00018A                        321 _LcdSend:
                                    322 ;	user/lcd5110.c: 96: RESET_CE;
      00018A 4B 04            [ 1]  323 	push	#0x04
      00018C 4B 0F            [ 1]  324 	push	#0x0f
      00018E 4B 50            [ 1]  325 	push	#0x50
      000190 CDr00r00         [ 4]  326 	call	_GPIO_WriteLow
      000193 5B 03            [ 2]  327 	addw	sp, #3
                                    328 ;	user/lcd5110.c: 97: if(cmd == LCD_DATA) SET_DC;
      000195 7B 04            [ 1]  329 	ld	a, (0x04, sp)
      000197 A1 01            [ 1]  330 	cp	a, #0x01
      000199 26 0D            [ 1]  331 	jrne	00102$
      00019B 4B 08            [ 1]  332 	push	#0x08
      00019D 4B 0F            [ 1]  333 	push	#0x0f
      00019F 4B 50            [ 1]  334 	push	#0x50
      0001A1 CDr00r00         [ 4]  335 	call	_GPIO_WriteHigh
      0001A4 5B 03            [ 2]  336 	addw	sp, #3
      0001A6 20 0B            [ 2]  337 	jra	00103$
      0001A8                        338 00102$:
                                    339 ;	user/lcd5110.c: 98: else RESET_DC;
      0001A8 4B 08            [ 1]  340 	push	#0x08
      0001AA 4B 0F            [ 1]  341 	push	#0x0f
      0001AC 4B 50            [ 1]  342 	push	#0x50
      0001AE CDr00r00         [ 4]  343 	call	_GPIO_WriteLow
      0001B1 5B 03            [ 2]  344 	addw	sp, #3
      0001B3                        345 00103$:
                                    346 ;	user/lcd5110.c: 99: LcdVSPI(data);
      0001B3 7B 03            [ 1]  347 	ld	a, (0x03, sp)
      0001B5 88               [ 1]  348 	push	a
      0001B6 CDr01r45         [ 4]  349 	call	_LcdVSPI
      0001B9 84               [ 1]  350 	pop	a
                                    351 ;	user/lcd5110.c: 101: SET_CE;
      0001BA 4B 04            [ 1]  352 	push	#0x04
      0001BC 4B 0F            [ 1]  353 	push	#0x0f
      0001BE 4B 50            [ 1]  354 	push	#0x50
      0001C0 CDr00r00         [ 4]  355 	call	_GPIO_WriteHigh
      0001C3 5B 03            [ 2]  356 	addw	sp, #3
      0001C5 81               [ 4]  357 	ret
                                    358 ;	user/lcd5110.c: 105: void LcdContrast (uint8_t contrast )
                                    359 ;	-----------------------------------------
                                    360 ;	 function LcdContrast
                                    361 ;	-----------------------------------------
      0001C6                        362 _LcdContrast:
                                    363 ;	user/lcd5110.c: 107: LcdSend(0x21, LCD_CMD);              // LCD Extended Commands
      0001C6 4B 00            [ 1]  364 	push	#0x00
      0001C8 4B 21            [ 1]  365 	push	#0x21
      0001CA CDr01r8A         [ 4]  366 	call	_LcdSend
      0001CD 85               [ 2]  367 	popw	x
                                    368 ;	user/lcd5110.c: 108: LcdSend(0x80 | contrast, LCD_CMD);   // Set contrast
      0001CE 7B 03            [ 1]  369 	ld	a, (0x03, sp)
      0001D0 AA 80            [ 1]  370 	or	a, #0x80
      0001D2 4B 00            [ 1]  371 	push	#0x00
      0001D4 88               [ 1]  372 	push	a
      0001D5 CDr01r8A         [ 4]  373 	call	_LcdSend
      0001D8 85               [ 2]  374 	popw	x
                                    375 ;	user/lcd5110.c: 109: LcdSend(0x20, LCD_CMD);              // LCD Standard Commands
      0001D9 4B 00            [ 1]  376 	push	#0x00
      0001DB 4B 20            [ 1]  377 	push	#0x20
      0001DD CDr01r8A         [ 4]  378 	call	_LcdSend
      0001E0 85               [ 2]  379 	popw	x
      0001E1 81               [ 4]  380 	ret
                                    381 ;	user/lcd5110.c: 113: uint8_t LcdGotoXYFont(uint8_t x, uint8_t y)
                                    382 ;	-----------------------------------------
                                    383 ;	 function LcdGotoXYFont
                                    384 ;	-----------------------------------------
      0001E2                        385 _LcdGotoXYFont:
      0001E2 89               [ 2]  386 	pushw	x
                                    387 ;	user/lcd5110.c: 115: if(x > 13 || y > 5) return OUT_OF_BORDER;
      0001E3 7B 05            [ 1]  388 	ld	a, (0x05, sp)
      0001E5 A1 0D            [ 1]  389 	cp	a, #0x0d
      0001E7 22 06            [ 1]  390 	jrugt	00101$
      0001E9 7B 06            [ 1]  391 	ld	a, (0x06, sp)
      0001EB A1 05            [ 1]  392 	cp	a, #0x05
      0001ED 23 04            [ 2]  393 	jrule	00102$
      0001EF                        394 00101$:
      0001EF A6 01            [ 1]  395 	ld	a, #0x01
      0001F1 20 15            [ 2]  396 	jra	00104$
      0001F3                        397 00102$:
                                    398 ;	user/lcd5110.c: 117: LcdCacheIdx = x * 6 + y * 84;
      0001F3 7B 05            [ 1]  399 	ld	a, (0x05, sp)
      0001F5 97               [ 1]  400 	ld	xl, a
      0001F6 A6 06            [ 1]  401 	ld	a, #0x06
      0001F8 42               [ 4]  402 	mul	x, a
      0001F9 1F 01            [ 2]  403 	ldw	(0x01, sp), x
      0001FB 7B 06            [ 1]  404 	ld	a, (0x06, sp)
      0001FD 97               [ 1]  405 	ld	xl, a
      0001FE A6 54            [ 1]  406 	ld	a, #0x54
      000200 42               [ 4]  407 	mul	x, a
      000201 72 FB 01         [ 2]  408 	addw	x, (0x01, sp)
      000204 CFu01uFC         [ 2]  409 	ldw	_LcdCacheIdx+0, x
                                    410 ;	user/lcd5110.c: 118: return OK;
      000207 4F               [ 1]  411 	clr	a
      000208                        412 00104$:
      000208 85               [ 2]  413 	popw	x
      000209 81               [ 4]  414 	ret
                                    415 ;	user/lcd5110.c: 123: uint8_t LcdChar(LcdFontSize size, uint16_t ch)
                                    416 ;	-----------------------------------------
                                    417 ;	 function LcdChar
                                    418 ;	-----------------------------------------
      00020A                        419 _LcdChar:
      00020A 52 32            [ 2]  420 	sub	sp, #50
                                    421 ;	user/lcd5110.c: 129: if (LcdCacheIdx < BottomCacheMark)
      00020C CEu01uF8         [ 2]  422 	ldw	x, _BottomCacheMark+0
      00020F C3u01uFC         [ 2]  423 	cpw	x, _LcdCacheIdx+0
      000212 2D 06            [ 1]  424 	jrsle	00102$
                                    425 ;	user/lcd5110.c: 132: BottomCacheMark = LcdCacheIdx;
      000214 CEu01uFC         [ 2]  426 	ldw	x, _LcdCacheIdx+0
      000217 CFu01uF8         [ 2]  427 	ldw	_BottomCacheMark+0, x
      00021A                        428 00102$:
                                    429 ;	user/lcd5110.c: 135: if ((ch >= 0x20) && (ch <= 0x7F))
      00021A 1E 36            [ 2]  430 	ldw	x, (0x36, sp)
      00021C A3 00 20         [ 2]  431 	cpw	x, #0x0020
      00021F 25 10            [ 1]  432 	jrc	00107$
      000221 1E 36            [ 2]  433 	ldw	x, (0x36, sp)
      000223 A3 00 7F         [ 2]  434 	cpw	x, #0x007f
      000226 22 09            [ 1]  435 	jrugt	00107$
                                    436 ;	user/lcd5110.c: 138: ch -= 32;
      000228 1E 36            [ 2]  437 	ldw	x, (0x36, sp)
      00022A 1D 00 20         [ 2]  438 	subw	x, #0x0020
      00022D 1F 36            [ 2]  439 	ldw	(0x36, sp), x
      00022F 20 15            [ 2]  440 	jra	00108$
      000231                        441 00107$:
                                    442 ;	user/lcd5110.c: 140: else if (ch >= 0xC0)    
      000231 1E 36            [ 2]  443 	ldw	x, (0x36, sp)
      000233 A3 00 C0         [ 2]  444 	cpw	x, #0x00c0
      000236 25 09            [ 1]  445 	jrc	00104$
                                    446 ;	user/lcd5110.c: 143: ch -= 96;
      000238 1E 36            [ 2]  447 	ldw	x, (0x36, sp)
      00023A 1D 00 60         [ 2]  448 	subw	x, #0x0060
      00023D 1F 36            [ 2]  449 	ldw	(0x36, sp), x
      00023F 20 05            [ 2]  450 	jra	00108$
      000241                        451 00104$:
                                    452 ;	user/lcd5110.c: 148: ch = 95;
      000241 AE 00 5F         [ 2]  453 	ldw	x, #0x005f
      000244 1F 36            [ 2]  454 	ldw	(0x36, sp), x
      000246                        455 00108$:
                                    456 ;	user/lcd5110.c: 153: for (i = 0; i < 5; i++)
      000246 1E 36            [ 2]  457 	ldw	x, (0x36, sp)
      000248 89               [ 2]  458 	pushw	x
      000249 4B 05            [ 1]  459 	push	#0x05
      00024B 4B 00            [ 1]  460 	push	#0x00
                                    461 ;	user/lcd5110.c: 151: if (size == FONT_1X)
      00024D CDr00r00         [ 4]  462 	call	__mulint
      000250 5B 04            [ 2]  463 	addw	sp, #4
      000252 1F 2F            [ 2]  464 	ldw	(0x2f, sp), x
      000254 0D 35            [ 1]  465 	tnz	(0x35, sp)
      000256 26 33            [ 1]  466 	jrne	00147$
                                    467 ;	user/lcd5110.c: 153: for (i = 0; i < 5; i++)
      000258 AEr00r00         [ 2]  468 	ldw	x, #_LcdCache+0
      00025B 1F 31            [ 2]  469 	ldw	(0x31, sp), x
      00025D AEr08rF0         [ 2]  470 	ldw	x, #_FontLookup+0
      000260 72 FB 2F         [ 2]  471 	addw	x, (0x2f, sp)
      000263 1F 10            [ 2]  472 	ldw	(0x10, sp), x
      000265 4F               [ 1]  473 	clr	a
      000266                        474 00153$:
                                    475 ;	user/lcd5110.c: 156: LcdCache[LcdCacheIdx++] = *( &(FontLookup[ch][i]) ) << 1;
      000266 90 CEu01uFC      [ 2]  476 	ldw	y, _LcdCacheIdx+0
      00026A CEu01uFC         [ 2]  477 	ldw	x, _LcdCacheIdx+0
      00026D 5C               [ 2]  478 	incw	x
      00026E CFu01uFC         [ 2]  479 	ldw	_LcdCacheIdx+0, x
      000271 72 F9 31         [ 2]  480 	addw	y, (0x31, sp)
      000274 5F               [ 1]  481 	clrw	x
      000275 97               [ 1]  482 	ld	xl, a
      000276 72 FB 10         [ 2]  483 	addw	x, (0x10, sp)
      000279 88               [ 1]  484 	push	a
      00027A F6               [ 1]  485 	ld	a, (x)
      00027B 97               [ 1]  486 	ld	xl, a
      00027C 84               [ 1]  487 	pop	a
      00027D 58               [ 2]  488 	sllw	x
      00027E 88               [ 1]  489 	push	a
      00027F 9F               [ 1]  490 	ld	a, xl
      000280 90 F7            [ 1]  491 	ld	(y), a
      000282 84               [ 1]  492 	pop	a
                                    493 ;	user/lcd5110.c: 153: for (i = 0; i < 5; i++)
      000283 4C               [ 1]  494 	inc	a
      000284 A1 05            [ 1]  495 	cp	a, #0x05
      000286 25 DE            [ 1]  496 	jrc	00153$
      000288 CCr05r18         [ 2]  497 	jp	00148$
      00028B                        498 00147$:
                                    499 ;	user/lcd5110.c: 161: tmpIdx = LcdCacheIdx - 84;
      00028B CEu01uFC         [ 2]  500 	ldw	x, _LcdCacheIdx+0
      00028E 1D 00 54         [ 2]  501 	subw	x, #0x0054
      000291 1F 14            [ 2]  502 	ldw	(0x14, sp), x
                                    503 ;	user/lcd5110.c: 172: if ((ch > 15) & (ch < 26)) {
      000293 1E 36            [ 2]  504 	ldw	x, (0x36, sp)
      000295 A3 00 0F         [ 2]  505 	cpw	x, #0x000f
      000298 22 04            [ 1]  506 	jrugt	00277$
      00029A 0F 07            [ 1]  507 	clr	(0x07, sp)
      00029C 20 04            [ 2]  508 	jra	00278$
      00029E                        509 00277$:
      00029E A6 01            [ 1]  510 	ld	a, #0x01
      0002A0 6B 07            [ 1]  511 	ld	(0x07, sp), a
      0002A2                        512 00278$:
      0002A2 1E 36            [ 2]  513 	ldw	x, (0x36, sp)
      0002A4 A3 00 1A         [ 2]  514 	cpw	x, #0x001a
      0002A7 4F               [ 1]  515 	clr	a
      0002A8 49               [ 1]  516 	rlc	a
                                    517 ;	user/lcd5110.c: 173: ch -= 16;
      0002A9 1E 36            [ 2]  518 	ldw	x, (0x36, sp)
      0002AB 1D 00 10         [ 2]  519 	subw	x, #0x0010
      0002AE 1F 25            [ 2]  520 	ldw	(0x25, sp), x
                                    521 ;	user/lcd5110.c: 172: if ((ch > 15) & (ch < 26)) {
      0002B0 14 07            [ 1]  522 	and	a, (0x07, sp)
      0002B2 6B 1F            [ 1]  523 	ld	(0x1f, sp), a
                                    524 ;	user/lcd5110.c: 159: else if (size == FONT_2X)
      0002B4 7B 35            [ 1]  525 	ld	a, (0x35, sp)
      0002B6 A1 01            [ 1]  526 	cp	a, #0x01
      0002B8 27 03            [ 1]  527 	jreq	00281$
      0002BA CCr04r0B         [ 2]  528 	jp	00144$
      0002BD                        529 00281$:
                                    530 ;	user/lcd5110.c: 161: tmpIdx = LcdCacheIdx - 84;
      0002BD 16 14            [ 2]  531 	ldw	y, (0x14, sp)
      0002BF 17 2B            [ 2]  532 	ldw	(0x2b, sp), y
                                    533 ;	user/lcd5110.c: 163: if (tmpIdx < BottomCacheMark)
      0002C1 1E 2B            [ 2]  534 	ldw	x, (0x2b, sp)
      0002C3 C3u01uF8         [ 2]  535 	cpw	x, _BottomCacheMark+0
      0002C6 2E 0A            [ 1]  536 	jrsge	00112$
                                    537 ;	user/lcd5110.c: 165: BottomCacheMark = tmpIdx;
      0002C8 7B 2C            [ 1]  538 	ld	a, (0x2c, sp)
      0002CA C7u01uF9         [ 1]  539 	ld	_BottomCacheMark+1, a
      0002CD 7B 2B            [ 1]  540 	ld	a, (0x2b, sp)
      0002CF C7u01uF8         [ 1]  541 	ld	_BottomCacheMark+0, a
      0002D2                        542 00112$:
                                    543 ;	user/lcd5110.c: 168: if (tmpIdx < 0) return OUT_OF_BORDER;
      0002D2 0D 2B            [ 1]  544 	tnz	(0x2b, sp)
      0002D4 2A 05            [ 1]  545 	jrpl	00114$
      0002D6 A6 01            [ 1]  546 	ld	a, #0x01
      0002D8 CCr05r46         [ 2]  547 	jp	00161$
      0002DB                        548 00114$:
                                    549 ;	user/lcd5110.c: 172: if ((ch > 15) & (ch < 26)) {
      0002DB 0D 1F            [ 1]  550 	tnz	(0x1f, sp)
      0002DD 27 5D            [ 1]  551 	jreq	00176$
                                    552 ;	user/lcd5110.c: 173: ch -= 16;
      0002DF 16 25            [ 2]  553 	ldw	y, (0x25, sp)
      0002E1 17 36            [ 2]  554 	ldw	(0x36, sp), y
                                    555 ;	user/lcd5110.c: 174: for (i = 0; i < 10; i++)
      0002E3 AEr00r00         [ 2]  556 	ldw	x, #_LcdCache+0
      0002E6 1F 2D            [ 2]  557 	ldw	(0x2d, sp), x
      0002E8 AEr0Cr10         [ 2]  558 	ldw	x, #_BigNumbers+0
      0002EB 1F 16            [ 2]  559 	ldw	(0x16, sp), x
      0002ED 1E 36            [ 2]  560 	ldw	x, (0x36, sp)
      0002EF 89               [ 2]  561 	pushw	x
      0002F0 4B 14            [ 1]  562 	push	#0x14
      0002F2 4B 00            [ 1]  563 	push	#0x00
      0002F4 CDr00r00         [ 4]  564 	call	__mulint
      0002F7 5B 04            [ 2]  565 	addw	sp, #4
      0002F9 72 FB 16         [ 2]  566 	addw	x, (0x16, sp)
      0002FC 1F 20            [ 2]  567 	ldw	(0x20, sp), x
      0002FE 16 2B            [ 2]  568 	ldw	y, (0x2b, sp)
      000300 17 1D            [ 2]  569 	ldw	(0x1d, sp), y
      000302 0F 03            [ 1]  570 	clr	(0x03, sp)
      000304                        571 00155$:
                                    572 ;	user/lcd5110.c: 176: LcdCache[tmpIdx++] = *(&(BigNumbers[ch][i]));
      000304 16 1D            [ 2]  573 	ldw	y, (0x1d, sp)
      000306 17 29            [ 2]  574 	ldw	(0x29, sp), y
      000308 1E 1D            [ 2]  575 	ldw	x, (0x1d, sp)
      00030A 5C               [ 2]  576 	incw	x
      00030B 1F 1D            [ 2]  577 	ldw	(0x1d, sp), x
      00030D 16 2D            [ 2]  578 	ldw	y, (0x2d, sp)
      00030F 72 F9 29         [ 2]  579 	addw	y, (0x29, sp)
      000312 5F               [ 1]  580 	clrw	x
      000313 7B 03            [ 1]  581 	ld	a, (0x03, sp)
      000315 97               [ 1]  582 	ld	xl, a
      000316 72 FB 20         [ 2]  583 	addw	x, (0x20, sp)
      000319 F6               [ 1]  584 	ld	a, (x)
      00031A 90 F7            [ 1]  585 	ld	(y), a
                                    586 ;	user/lcd5110.c: 177: LcdCache[tmpIdx+83] = *(&(BigNumbers[ch][10+i]));
      00031C 16 1D            [ 2]  587 	ldw	y, (0x1d, sp)
      00031E 72 A9 00 53      [ 2]  588 	addw	y, #0x0053
      000322 72 F9 2D         [ 2]  589 	addw	y, (0x2d, sp)
      000325 7B 03            [ 1]  590 	ld	a, (0x03, sp)
      000327 AB 0A            [ 1]  591 	add	a, #0x0a
      000329 5F               [ 1]  592 	clrw	x
      00032A 97               [ 1]  593 	ld	xl, a
      00032B 72 FB 20         [ 2]  594 	addw	x, (0x20, sp)
      00032E F6               [ 1]  595 	ld	a, (x)
      00032F 90 F7            [ 1]  596 	ld	(y), a
                                    597 ;	user/lcd5110.c: 174: for (i = 0; i < 10; i++)
      000331 0C 03            [ 1]  598 	inc	(0x03, sp)
      000333 7B 03            [ 1]  599 	ld	a, (0x03, sp)
      000335 A1 0A            [ 1]  600 	cp	a, #0x0a
      000337 25 CB            [ 1]  601 	jrc	00155$
      000339 CCr03rF5         [ 2]  602 	jp	00119$
                                    603 ;	user/lcd5110.c: 181: for (i = 0; i < 5; i++)
      00033C                        604 00176$:
      00033C AEr08rF0         [ 2]  605 	ldw	x, #_FontLookup+0
      00033F 72 FB 2F         [ 2]  606 	addw	x, (0x2f, sp)
      000342 1F 09            [ 2]  607 	ldw	(0x09, sp), x
      000344 AEr00r00         [ 2]  608 	ldw	x, #_LcdCache+0
      000347 1F 27            [ 2]  609 	ldw	(0x27, sp), x
      000349 0F 03            [ 1]  610 	clr	(0x03, sp)
      00034B                        611 00157$:
                                    612 ;	user/lcd5110.c: 184: c = *(&(FontLookup[ch][i])) << 1;
      00034B 5F               [ 1]  613 	clrw	x
      00034C 7B 03            [ 1]  614 	ld	a, (0x03, sp)
      00034E 97               [ 1]  615 	ld	xl, a
      00034F 72 FB 09         [ 2]  616 	addw	x, (0x09, sp)
      000352 F6               [ 1]  617 	ld	a, (x)
      000353 48               [ 1]  618 	sll	a
                                    619 ;	user/lcd5110.c: 187: b1 =  (c & 0x01) * 3;
      000354 90 97            [ 1]  620 	ld	yl, a
      000356 A4 01            [ 1]  621 	and	a, #0x01
      000358 97               [ 1]  622 	ld	xl, a
      000359 A6 03            [ 1]  623 	ld	a, #0x03
      00035B 42               [ 4]  624 	mul	x, a
      00035C 9F               [ 1]  625 	ld	a, xl
      00035D 6B 08            [ 1]  626 	ld	(0x08, sp), a
                                    627 ;	user/lcd5110.c: 188: b1 |= (c & 0x02) * 6;
      00035F 90 9F            [ 1]  628 	ld	a, yl
      000361 A4 02            [ 1]  629 	and	a, #0x02
      000363 97               [ 1]  630 	ld	xl, a
      000364 A6 06            [ 1]  631 	ld	a, #0x06
      000366 42               [ 4]  632 	mul	x, a
      000367 9F               [ 1]  633 	ld	a, xl
      000368 1A 08            [ 1]  634 	or	a, (0x08, sp)
      00036A 6B 22            [ 1]  635 	ld	(0x22, sp), a
                                    636 ;	user/lcd5110.c: 189: b1 |= (c & 0x04) * 12;
      00036C 90 9F            [ 1]  637 	ld	a, yl
      00036E A4 04            [ 1]  638 	and	a, #0x04
      000370 97               [ 1]  639 	ld	xl, a
      000371 A6 0C            [ 1]  640 	ld	a, #0x0c
      000373 42               [ 4]  641 	mul	x, a
      000374 9F               [ 1]  642 	ld	a, xl
      000375 1A 22            [ 1]  643 	or	a, (0x22, sp)
      000377 6B 02            [ 1]  644 	ld	(0x02, sp), a
                                    645 ;	user/lcd5110.c: 190: b1 |= (c & 0x08) * 24;
      000379 90 9F            [ 1]  646 	ld	a, yl
      00037B A4 08            [ 1]  647 	and	a, #0x08
      00037D 97               [ 1]  648 	ld	xl, a
      00037E A6 18            [ 1]  649 	ld	a, #0x18
      000380 42               [ 4]  650 	mul	x, a
      000381 9F               [ 1]  651 	ld	a, xl
      000382 1A 02            [ 1]  652 	or	a, (0x02, sp)
      000384 6B 0D            [ 1]  653 	ld	(0x0d, sp), a
                                    654 ;	user/lcd5110.c: 192: c >>= 4;
      000386 61               [ 1]  655 	exg	a, yl
      000387 4E               [ 1]  656 	swap	a
      000388 A4 0F            [ 1]  657 	and	a, #0x0f
      00038A 61               [ 1]  658 	exg	a, yl
                                    659 ;	user/lcd5110.c: 194: b2 =  (c & 0x01) * 3;
      00038B 90 9F            [ 1]  660 	ld	a, yl
      00038D A4 01            [ 1]  661 	and	a, #0x01
      00038F 97               [ 1]  662 	ld	xl, a
      000390 A6 03            [ 1]  663 	ld	a, #0x03
      000392 42               [ 4]  664 	mul	x, a
      000393 9F               [ 1]  665 	ld	a, xl
      000394 6B 04            [ 1]  666 	ld	(0x04, sp), a
                                    667 ;	user/lcd5110.c: 195: b2 |= (c & 0x02) * 6;
      000396 90 9F            [ 1]  668 	ld	a, yl
      000398 A4 02            [ 1]  669 	and	a, #0x02
      00039A 97               [ 1]  670 	ld	xl, a
      00039B A6 06            [ 1]  671 	ld	a, #0x06
      00039D 42               [ 4]  672 	mul	x, a
      00039E 9F               [ 1]  673 	ld	a, xl
      00039F 1A 04            [ 1]  674 	or	a, (0x04, sp)
      0003A1 6B 18            [ 1]  675 	ld	(0x18, sp), a
                                    676 ;	user/lcd5110.c: 196: b2 |= (c & 0x04) * 12;
      0003A3 90 9F            [ 1]  677 	ld	a, yl
      0003A5 A4 04            [ 1]  678 	and	a, #0x04
      0003A7 97               [ 1]  679 	ld	xl, a
      0003A8 A6 0C            [ 1]  680 	ld	a, #0x0c
      0003AA 42               [ 4]  681 	mul	x, a
      0003AB 9F               [ 1]  682 	ld	a, xl
      0003AC 1A 18            [ 1]  683 	or	a, (0x18, sp)
      0003AE 6B 01            [ 1]  684 	ld	(0x01, sp), a
                                    685 ;	user/lcd5110.c: 197: b2 |= (c & 0x08) * 24;
      0003B0 90 9F            [ 1]  686 	ld	a, yl
      0003B2 A4 08            [ 1]  687 	and	a, #0x08
      0003B4 97               [ 1]  688 	ld	xl, a
      0003B5 A6 18            [ 1]  689 	ld	a, #0x18
      0003B7 42               [ 4]  690 	mul	x, a
      0003B8 9F               [ 1]  691 	ld	a, xl
      0003B9 1A 01            [ 1]  692 	or	a, (0x01, sp)
                                    693 ;	user/lcd5110.c: 200: LcdCache[tmpIdx++] = b1;
      0003BB 16 2B            [ 2]  694 	ldw	y, (0x2b, sp)
      0003BD 1E 2B            [ 2]  695 	ldw	x, (0x2b, sp)
      0003BF 5C               [ 2]  696 	incw	x
      0003C0 72 F9 27         [ 2]  697 	addw	y, (0x27, sp)
      0003C3 88               [ 1]  698 	push	a
      0003C4 7B 0E            [ 1]  699 	ld	a, (0x0e, sp)
      0003C6 90 F7            [ 1]  700 	ld	(y), a
      0003C8 84               [ 1]  701 	pop	a
                                    702 ;	user/lcd5110.c: 201: LcdCache[tmpIdx++] = b1;
      0003C9 1F 1B            [ 2]  703 	ldw	(0x1b, sp), x
      0003CB 5C               [ 2]  704 	incw	x
      0003CC 1F 2B            [ 2]  705 	ldw	(0x2b, sp), x
      0003CE 1E 27            [ 2]  706 	ldw	x, (0x27, sp)
      0003D0 72 FB 1B         [ 2]  707 	addw	x, (0x1b, sp)
      0003D3 88               [ 1]  708 	push	a
      0003D4 7B 0E            [ 1]  709 	ld	a, (0x0e, sp)
      0003D6 F7               [ 1]  710 	ld	(x), a
      0003D7 84               [ 1]  711 	pop	a
                                    712 ;	user/lcd5110.c: 202: LcdCache[tmpIdx + 82] = b2;
      0003D8 1E 2B            [ 2]  713 	ldw	x, (0x2b, sp)
      0003DA 1C 00 52         [ 2]  714 	addw	x, #0x0052
      0003DD 72 FB 27         [ 2]  715 	addw	x, (0x27, sp)
      0003E0 F7               [ 1]  716 	ld	(x), a
                                    717 ;	user/lcd5110.c: 203: LcdCache[tmpIdx + 83] = b2;
      0003E1 1E 2B            [ 2]  718 	ldw	x, (0x2b, sp)
      0003E3 1C 00 53         [ 2]  719 	addw	x, #0x0053
      0003E6 72 FB 27         [ 2]  720 	addw	x, (0x27, sp)
      0003E9 F7               [ 1]  721 	ld	(x), a
                                    722 ;	user/lcd5110.c: 181: for (i = 0; i < 5; i++)
      0003EA 0C 03            [ 1]  723 	inc	(0x03, sp)
      0003EC 7B 03            [ 1]  724 	ld	a, (0x03, sp)
      0003EE A1 05            [ 1]  725 	cp	a, #0x05
      0003F0 24 03            [ 1]  726 	jrnc	00286$
      0003F2 CCr03r4B         [ 2]  727 	jp	00157$
      0003F5                        728 00286$:
      0003F5                        729 00119$:
                                    730 ;	user/lcd5110.c: 208: LcdCacheIdx = (LcdCacheIdx + 11) % LCD_CACHE_SIZE;
      0003F5 CEu01uFC         [ 2]  731 	ldw	x, _LcdCacheIdx+0
      0003F8 1C 00 0B         [ 2]  732 	addw	x, #0x000b
      0003FB 4B F8            [ 1]  733 	push	#0xf8
      0003FD 4B 01            [ 1]  734 	push	#0x01
      0003FF 89               [ 2]  735 	pushw	x
      000400 CDr00r00         [ 4]  736 	call	__modsint
      000403 5B 04            [ 2]  737 	addw	sp, #4
      000405 CFu01uFC         [ 2]  738 	ldw	_LcdCacheIdx+0, x
      000408 CCr05r18         [ 2]  739 	jp	00148$
      00040B                        740 00144$:
                                    741 ;	user/lcd5110.c: 210: else if (size == FONT_4X) {
      00040B 7B 35            [ 1]  742 	ld	a, (0x35, sp)
      00040D A1 02            [ 1]  743 	cp	a, #0x02
      00040F 27 03            [ 1]  744 	jreq	00289$
      000411 CCr05r18         [ 2]  745 	jp	00148$
      000414                        746 00289$:
                                    747 ;	user/lcd5110.c: 211: tmpIdx = LcdCacheIdx - 84;
      000414 16 14            [ 2]  748 	ldw	y, (0x14, sp)
      000416 17 0B            [ 2]  749 	ldw	(0x0b, sp), y
                                    750 ;	user/lcd5110.c: 213: if (tmpIdx < BottomCacheMark)
      000418 1E 0B            [ 2]  751 	ldw	x, (0x0b, sp)
      00041A C3u01uF8         [ 2]  752 	cpw	x, _BottomCacheMark+0
      00041D 2E 0A            [ 1]  753 	jrsge	00121$
                                    754 ;	user/lcd5110.c: 215: BottomCacheMark = tmpIdx;
      00041F 7B 0C            [ 1]  755 	ld	a, (0x0c, sp)
      000421 C7u01uF9         [ 1]  756 	ld	_BottomCacheMark+1, a
      000424 7B 0B            [ 1]  757 	ld	a, (0x0b, sp)
      000426 C7u01uF8         [ 1]  758 	ld	_BottomCacheMark+0, a
      000429                        759 00121$:
                                    760 ;	user/lcd5110.c: 218: if (tmpIdx < 0) return OUT_OF_BORDER;
      000429 0D 0B            [ 1]  761 	tnz	(0x0b, sp)
      00042B 2A 05            [ 1]  762 	jrpl	00123$
      00042D A6 01            [ 1]  763 	ld	a, #0x01
      00042F CCr05r46         [ 2]  764 	jp	00161$
      000432                        765 00123$:
                                    766 ;	user/lcd5110.c: 223: if ((ch > 15) & (ch < 26)) {
      000432 0D 1F            [ 1]  767 	tnz	(0x1f, sp)
      000434 27 06            [ 1]  768 	jreq	00134$
                                    769 ;	user/lcd5110.c: 224: ch -= 16;
      000436 16 25            [ 2]  770 	ldw	y, (0x25, sp)
      000438 17 36            [ 2]  771 	ldw	(0x36, sp), y
      00043A 20 2F            [ 2]  772 	jra	00135$
      00043C                        773 00134$:
                                    774 ;	user/lcd5110.c: 226: else if (ch == 43-32) { // +
      00043C 1E 36            [ 2]  775 	ldw	x, (0x36, sp)
      00043E A3 00 0B         [ 2]  776 	cpw	x, #0x000b
      000441 26 07            [ 1]  777 	jrne	00131$
                                    778 ;	user/lcd5110.c: 227: ch = 10;
      000443 AE 00 0A         [ 2]  779 	ldw	x, #0x000a
      000446 1F 36            [ 2]  780 	ldw	(0x36, sp), x
      000448 20 21            [ 2]  781 	jra	00135$
      00044A                        782 00131$:
                                    783 ;	user/lcd5110.c: 229: else if (ch == 45-32) { // -
      00044A 1E 36            [ 2]  784 	ldw	x, (0x36, sp)
      00044C A3 00 0D         [ 2]  785 	cpw	x, #0x000d
      00044F 26 07            [ 1]  786 	jrne	00128$
                                    787 ;	user/lcd5110.c: 230: ch = 11;
      000451 AE 00 0B         [ 2]  788 	ldw	x, #0x000b
      000454 1F 36            [ 2]  789 	ldw	(0x36, sp), x
      000456 20 13            [ 2]  790 	jra	00135$
      000458                        791 00128$:
                                    792 ;	user/lcd5110.c: 232: else if (ch == 46-32) { // .
      000458 1E 36            [ 2]  793 	ldw	x, (0x36, sp)
      00045A A3 00 0E         [ 2]  794 	cpw	x, #0x000e
      00045D 26 07            [ 1]  795 	jrne	00125$
                                    796 ;	user/lcd5110.c: 233: ch = 12;
      00045F AE 00 0C         [ 2]  797 	ldw	x, #0x000c
      000462 1F 36            [ 2]  798 	ldw	(0x36, sp), x
      000464 20 05            [ 2]  799 	jra	00135$
      000466                        800 00125$:
                                    801 ;	user/lcd5110.c: 236: ch= 255;
      000466 AE 00 FF         [ 2]  802 	ldw	x, #0x00ff
      000469 1F 36            [ 2]  803 	ldw	(0x36, sp), x
      00046B                        804 00135$:
                                    805 ;	user/lcd5110.c: 239: if (ch != 255) {
      00046B 1E 36            [ 2]  806 	ldw	x, (0x36, sp)
      00046D A3 00 FF         [ 2]  807 	cpw	x, #0x00ff
      000470 26 03            [ 1]  808 	jrne	00303$
      000472 CCr04rF5         [ 2]  809 	jp	00138$
      000475                        810 00303$:
                                    811 ;	user/lcd5110.c: 240: for (i = 0; i < 20; i++)
      000475 AEr00r00         [ 2]  812 	ldw	x, #_LcdCache+0
      000478 1F 0E            [ 2]  813 	ldw	(0x0e, sp), x
      00047A AEr0CrD8         [ 2]  814 	ldw	x, #_LargeNumbers+0
      00047D 1F 23            [ 2]  815 	ldw	(0x23, sp), x
      00047F 1E 36            [ 2]  816 	ldw	x, (0x36, sp)
      000481 89               [ 2]  817 	pushw	x
      000482 4B 50            [ 1]  818 	push	#0x50
      000484 4B 00            [ 1]  819 	push	#0x00
      000486 CDr00r00         [ 4]  820 	call	__mulint
      000489 5B 04            [ 2]  821 	addw	sp, #4
      00048B 72 FB 23         [ 2]  822 	addw	x, (0x23, sp)
      00048E 1F 19            [ 2]  823 	ldw	(0x19, sp), x
      000490 16 0B            [ 2]  824 	ldw	y, (0x0b, sp)
      000492 17 12            [ 2]  825 	ldw	(0x12, sp), y
      000494 0F 03            [ 1]  826 	clr	(0x03, sp)
      000496                        827 00159$:
                                    828 ;	user/lcd5110.c: 242: LcdCache[tmpIdx++] = *(&(LargeNumbers[ch][i]));
      000496 16 12            [ 2]  829 	ldw	y, (0x12, sp)
      000498 17 05            [ 2]  830 	ldw	(0x05, sp), y
      00049A 1E 12            [ 2]  831 	ldw	x, (0x12, sp)
      00049C 5C               [ 2]  832 	incw	x
      00049D 1F 12            [ 2]  833 	ldw	(0x12, sp), x
      00049F 16 0E            [ 2]  834 	ldw	y, (0x0e, sp)
      0004A1 72 F9 05         [ 2]  835 	addw	y, (0x05, sp)
      0004A4 5F               [ 1]  836 	clrw	x
      0004A5 7B 03            [ 1]  837 	ld	a, (0x03, sp)
      0004A7 97               [ 1]  838 	ld	xl, a
      0004A8 72 FB 19         [ 2]  839 	addw	x, (0x19, sp)
      0004AB F6               [ 1]  840 	ld	a, (x)
      0004AC 90 F7            [ 1]  841 	ld	(y), a
                                    842 ;	user/lcd5110.c: 243: LcdCache[tmpIdx+83] = *(&(LargeNumbers[ch][20+i]));
      0004AE 16 12            [ 2]  843 	ldw	y, (0x12, sp)
      0004B0 72 A9 00 53      [ 2]  844 	addw	y, #0x0053
      0004B4 72 F9 0E         [ 2]  845 	addw	y, (0x0e, sp)
      0004B7 7B 03            [ 1]  846 	ld	a, (0x03, sp)
      0004B9 AB 14            [ 1]  847 	add	a, #0x14
      0004BB 5F               [ 1]  848 	clrw	x
      0004BC 97               [ 1]  849 	ld	xl, a
      0004BD 72 FB 19         [ 2]  850 	addw	x, (0x19, sp)
      0004C0 F6               [ 1]  851 	ld	a, (x)
      0004C1 90 F7            [ 1]  852 	ld	(y), a
                                    853 ;	user/lcd5110.c: 244: LcdCache[tmpIdx+167] = *(&(LargeNumbers[ch][40+i]));
      0004C3 16 12            [ 2]  854 	ldw	y, (0x12, sp)
      0004C5 72 A9 00 A7      [ 2]  855 	addw	y, #0x00a7
      0004C9 72 F9 0E         [ 2]  856 	addw	y, (0x0e, sp)
      0004CC 7B 03            [ 1]  857 	ld	a, (0x03, sp)
      0004CE AB 28            [ 1]  858 	add	a, #0x28
      0004D0 5F               [ 1]  859 	clrw	x
      0004D1 97               [ 1]  860 	ld	xl, a
      0004D2 72 FB 19         [ 2]  861 	addw	x, (0x19, sp)
      0004D5 F6               [ 1]  862 	ld	a, (x)
      0004D6 90 F7            [ 1]  863 	ld	(y), a
                                    864 ;	user/lcd5110.c: 245: LcdCache[tmpIdx+251] = *(&(LargeNumbers[ch][60+i]));
      0004D8 16 12            [ 2]  865 	ldw	y, (0x12, sp)
      0004DA 72 A9 00 FB      [ 2]  866 	addw	y, #0x00fb
      0004DE 72 F9 0E         [ 2]  867 	addw	y, (0x0e, sp)
      0004E1 7B 03            [ 1]  868 	ld	a, (0x03, sp)
      0004E3 AB 3C            [ 1]  869 	add	a, #0x3c
      0004E5 5F               [ 1]  870 	clrw	x
      0004E6 97               [ 1]  871 	ld	xl, a
      0004E7 72 FB 19         [ 2]  872 	addw	x, (0x19, sp)
      0004EA F6               [ 1]  873 	ld	a, (x)
      0004EB 90 F7            [ 1]  874 	ld	(y), a
                                    875 ;	user/lcd5110.c: 240: for (i = 0; i < 20; i++)
      0004ED 0C 03            [ 1]  876 	inc	(0x03, sp)
      0004EF 7B 03            [ 1]  877 	ld	a, (0x03, sp)
      0004F1 A1 14            [ 1]  878 	cp	a, #0x14
      0004F3 25 A1            [ 1]  879 	jrc	00159$
      0004F5                        880 00138$:
                                    881 ;	user/lcd5110.c: 250: LcdCacheIdx = (LcdCacheIdx + 20) % LCD_CACHE_SIZE;
      0004F5 CEu01uFC         [ 2]  882 	ldw	x, _LcdCacheIdx+0
      0004F8 1C 00 14         [ 2]  883 	addw	x, #0x0014
      0004FB 4B F8            [ 1]  884 	push	#0xf8
      0004FD 4B 01            [ 1]  885 	push	#0x01
      0004FF 89               [ 2]  886 	pushw	x
      000500 CDr00r00         [ 4]  887 	call	__modsint
      000503 5B 04            [ 2]  888 	addw	sp, #4
      000505 CFu01uFC         [ 2]  889 	ldw	_LcdCacheIdx+0, x
                                    890 ;	user/lcd5110.c: 252: if (ch == 12) { // .
      000508 1E 36            [ 2]  891 	ldw	x, (0x36, sp)
      00050A A3 00 0C         [ 2]  892 	cpw	x, #0x000c
      00050D 26 09            [ 1]  893 	jrne	00148$
                                    894 ;	user/lcd5110.c: 253: LcdCacheIdx -=5;
      00050F CEu01uFC         [ 2]  895 	ldw	x, _LcdCacheIdx+0
      000512 1D 00 05         [ 2]  896 	subw	x, #0x0005
      000515 CFu01uFC         [ 2]  897 	ldw	_LcdCacheIdx+0, x
      000518                        898 00148$:
                                    899 ;	user/lcd5110.c: 257: if (LcdCacheIdx > TopCacheMark)
      000518 CEu01uFA         [ 2]  900 	ldw	x, _TopCacheMark+0
      00051B C3u01uFC         [ 2]  901 	cpw	x, _LcdCacheIdx+0
      00051E 2E 06            [ 1]  902 	jrsge	00150$
                                    903 ;	user/lcd5110.c: 260: TopCacheMark = LcdCacheIdx;
      000520 CEu01uFC         [ 2]  904 	ldw	x, _LcdCacheIdx+0
      000523 CFu01uFA         [ 2]  905 	ldw	_TopCacheMark+0, x
      000526                        906 00150$:
                                    907 ;	user/lcd5110.c: 264: LcdCache[LcdCacheIdx] = 0x00;
      000526 AEr00r00         [ 2]  908 	ldw	x, #_LcdCache+0
      000529 72 BBu01uFC      [ 2]  909 	addw	x, _LcdCacheIdx+0
      00052D 7F               [ 1]  910 	clr	(x)
                                    911 ;	user/lcd5110.c: 266: if(LcdCacheIdx == (LCD_CACHE_SIZE - 1))
      00052E CEu01uFC         [ 2]  912 	ldw	x, _LcdCacheIdx+0
      000531 A3 01 F7         [ 2]  913 	cpw	x, #0x01f7
      000534 26 08            [ 1]  914 	jrne	00152$
                                    915 ;	user/lcd5110.c: 268: LcdCacheIdx = 0;
      000536 5F               [ 1]  916 	clrw	x
      000537 CFu01uFC         [ 2]  917 	ldw	_LcdCacheIdx+0, x
                                    918 ;	user/lcd5110.c: 269: return OK_WITH_WRAP;
      00053A A6 02            [ 1]  919 	ld	a, #0x02
      00053C 20 08            [ 2]  920 	jra	00161$
      00053E                        921 00152$:
                                    922 ;	user/lcd5110.c: 272: LcdCacheIdx++;
      00053E CEu01uFC         [ 2]  923 	ldw	x, _LcdCacheIdx+0
      000541 5C               [ 2]  924 	incw	x
      000542 CFu01uFC         [ 2]  925 	ldw	_LcdCacheIdx+0, x
                                    926 ;	user/lcd5110.c: 273: return OK;
      000545 4F               [ 1]  927 	clr	a
      000546                        928 00161$:
      000546 5B 32            [ 2]  929 	addw	sp, #50
      000548 81               [ 4]  930 	ret
                                    931 ;	user/lcd5110.c: 277: uint8_t LcdStr(LcdFontSize size, uint8_t dataArray[])
                                    932 ;	-----------------------------------------
                                    933 ;	 function LcdStr
                                    934 ;	-----------------------------------------
      000549                        935 _LcdStr:
      000549 88               [ 1]  936 	push	a
                                    937 ;	user/lcd5110.c: 281: while( dataArray[ tmpIdx ] != '\0' )
      00054A 0F 01            [ 1]  938 	clr	(0x01, sp)
      00054C                        939 00103$:
      00054C 5F               [ 1]  940 	clrw	x
      00054D 7B 01            [ 1]  941 	ld	a, (0x01, sp)
      00054F 97               [ 1]  942 	ld	xl, a
      000550 72 FB 05         [ 2]  943 	addw	x, (0x05, sp)
      000553 F6               [ 1]  944 	ld	a, (x)
      000554 4D               [ 1]  945 	tnz	a
      000555 27 17            [ 1]  946 	jreq	00105$
                                    947 ;	user/lcd5110.c: 283: response = LcdChar(size, dataArray[ tmpIdx ]);
      000557 5F               [ 1]  948 	clrw	x
      000558 97               [ 1]  949 	ld	xl, a
      000559 89               [ 2]  950 	pushw	x
      00055A 7B 06            [ 1]  951 	ld	a, (0x06, sp)
      00055C 88               [ 1]  952 	push	a
      00055D CDr02r0A         [ 4]  953 	call	_LcdChar
      000560 5B 03            [ 2]  954 	addw	sp, #3
                                    955 ;	user/lcd5110.c: 284: if( response == OUT_OF_BORDER)
      000562 A1 01            [ 1]  956 	cp	a, #0x01
      000564 26 04            [ 1]  957 	jrne	00102$
                                    958 ;	user/lcd5110.c: 285: return OUT_OF_BORDER;
      000566 A6 01            [ 1]  959 	ld	a, #0x01
      000568 20 05            [ 2]  960 	jra	00106$
      00056A                        961 00102$:
                                    962 ;	user/lcd5110.c: 286: tmpIdx++;
      00056A 0C 01            [ 1]  963 	inc	(0x01, sp)
      00056C 20 DE            [ 2]  964 	jra	00103$
      00056E                        965 00105$:
                                    966 ;	user/lcd5110.c: 288: return OK;
      00056E 4F               [ 1]  967 	clr	a
      00056F                        968 00106$:
      00056F 5B 01            [ 2]  969 	addw	sp, #1
      000571 81               [ 4]  970 	ret
                                    971 ;	user/lcd5110.c: 292: uint8_t LcdFStr(LcdFontSize size, const uint8_t *dataPtr)
                                    972 ;	-----------------------------------------
                                    973 ;	 function LcdFStr
                                    974 ;	-----------------------------------------
      000572                        975 _LcdFStr:
      000572 89               [ 2]  976 	pushw	x
                                    977 ;	user/lcd5110.c: 296: for (c = *( dataPtr ); c; ++dataPtr, c = *( dataPtr ))
      000573 1E 06            [ 2]  978 	ldw	x, (0x06, sp)
      000575 F6               [ 1]  979 	ld	a, (x)
      000576 1F 01            [ 2]  980 	ldw	(0x01, sp), x
      000578                        981 00105$:
      000578 4D               [ 1]  982 	tnz	a
      000579 27 1D            [ 1]  983 	jreq	00103$
                                    984 ;	user/lcd5110.c: 298: response = LcdChar(size, c );
      00057B 5F               [ 1]  985 	clrw	x
      00057C 97               [ 1]  986 	ld	xl, a
      00057D 89               [ 2]  987 	pushw	x
      00057E 7B 07            [ 1]  988 	ld	a, (0x07, sp)
      000580 88               [ 1]  989 	push	a
      000581 CDr02r0A         [ 4]  990 	call	_LcdChar
      000584 5B 03            [ 2]  991 	addw	sp, #3
                                    992 ;	user/lcd5110.c: 299: if(response == OUT_OF_BORDER)
      000586 A1 01            [ 1]  993 	cp	a, #0x01
      000588 26 04            [ 1]  994 	jrne	00106$
                                    995 ;	user/lcd5110.c: 300: return OUT_OF_BORDER;
      00058A A6 01            [ 1]  996 	ld	a, #0x01
      00058C 20 0B            [ 2]  997 	jra	00107$
      00058E                        998 00106$:
                                    999 ;	user/lcd5110.c: 296: for (c = *( dataPtr ); c; ++dataPtr, c = *( dataPtr ))
      00058E 1E 01            [ 2] 1000 	ldw	x, (0x01, sp)
      000590 5C               [ 2] 1001 	incw	x
      000591 1F 01            [ 2] 1002 	ldw	(0x01, sp), x
      000593 1E 01            [ 2] 1003 	ldw	x, (0x01, sp)
      000595 F6               [ 1] 1004 	ld	a, (x)
      000596 20 E0            [ 2] 1005 	jra	00105$
      000598                       1006 00103$:
                                   1007 ;	user/lcd5110.c: 302: return OK;
      000598 4F               [ 1] 1008 	clr	a
      000599                       1009 00107$:
      000599 85               [ 2] 1010 	popw	x
      00059A 81               [ 4] 1011 	ret
                                   1012 ;	user/lcd5110.c: 306: uint8_t LcdPixel(uint8_t x, uint8_t y, LcdPixelMode mode)
                                   1013 ;	-----------------------------------------
                                   1014 ;	 function LcdPixel
                                   1015 ;	-----------------------------------------
      00059B                       1016 _LcdPixel:
      00059B 52 0A            [ 2] 1017 	sub	sp, #10
                                   1018 ;	user/lcd5110.c: 312: if (x >= LCD_X_RES || y >= LCD_Y_RES) return OUT_OF_BORDER;
      00059D 7B 0D            [ 1] 1019 	ld	a, (0x0d, sp)
      00059F A1 54            [ 1] 1020 	cp	a, #0x54
      0005A1 24 06            [ 1] 1021 	jrnc	00101$
      0005A3 7B 0E            [ 1] 1022 	ld	a, (0x0e, sp)
      0005A5 A1 30            [ 1] 1023 	cp	a, #0x30
      0005A7 25 05            [ 1] 1024 	jrc	00102$
      0005A9                       1025 00101$:
      0005A9 A6 01            [ 1] 1026 	ld	a, #0x01
      0005AB CCr06r36         [ 2] 1027 	jp	00116$
      0005AE                       1028 00102$:
                                   1029 ;	user/lcd5110.c: 314: index = ( ( y / 8 ) * 84 ) + x;
      0005AE 7B 0E            [ 1] 1030 	ld	a, (0x0e, sp)
      0005B0 44               [ 1] 1031 	srl	a
      0005B1 44               [ 1] 1032 	srl	a
      0005B2 44               [ 1] 1033 	srl	a
      0005B3 88               [ 1] 1034 	push	a
      0005B4 41               [ 1] 1035 	exg	a, xl
      0005B5 A6 54            [ 1] 1036 	ld	a, #0x54
      0005B7 41               [ 1] 1037 	exg	a, xl
      0005B8 42               [ 4] 1038 	mul	x, a
      0005B9 1F 08            [ 2] 1039 	ldw	(0x08, sp), x
      0005BB 84               [ 1] 1040 	pop	a
      0005BC 5F               [ 1] 1041 	clrw	x
      0005BD 41               [ 1] 1042 	exg	a, xl
      0005BE 7B 0D            [ 1] 1043 	ld	a, (0x0d, sp)
      0005C0 41               [ 1] 1044 	exg	a, xl
      0005C1 72 FB 07         [ 2] 1045 	addw	x, (0x07, sp)
      0005C4 1F 02            [ 2] 1046 	ldw	(0x02, sp), x
                                   1047 ;	user/lcd5110.c: 315: offset  = y - ( ( y / 8 ) * 8 );
      0005C6 48               [ 1] 1048 	sll	a
      0005C7 48               [ 1] 1049 	sll	a
      0005C8 48               [ 1] 1050 	sll	a
      0005C9 6B 09            [ 1] 1051 	ld	(0x09, sp), a
      0005CB 7B 0E            [ 1] 1052 	ld	a, (0x0e, sp)
      0005CD 10 09            [ 1] 1053 	sub	a, (0x09, sp)
      0005CF 6B 01            [ 1] 1054 	ld	(0x01, sp), a
                                   1055 ;	user/lcd5110.c: 317: data = LcdCache[ index ];
      0005D1 AEr00r00         [ 2] 1056 	ldw	x, #_LcdCache+0
      0005D4 72 FB 02         [ 2] 1057 	addw	x, (0x02, sp)
      0005D7 1F 04            [ 2] 1058 	ldw	(0x04, sp), x
      0005D9 1E 04            [ 2] 1059 	ldw	x, (0x04, sp)
      0005DB F6               [ 1] 1060 	ld	a, (x)
                                   1061 ;	user/lcd5110.c: 322: data &= ( ~( 0x01 << offset ) );
      0005DC 88               [ 1] 1062 	push	a
      0005DD A6 01            [ 1] 1063 	ld	a, #0x01
      0005DF 6B 07            [ 1] 1064 	ld	(0x07, sp), a
      0005E1 7B 02            [ 1] 1065 	ld	a, (0x02, sp)
      0005E3 27 05            [ 1] 1066 	jreq	00145$
      0005E5                       1067 00144$:
      0005E5 08 07            [ 1] 1068 	sll	(0x07, sp)
      0005E7 4A               [ 1] 1069 	dec	a
      0005E8 26 FB            [ 1] 1070 	jrne	00144$
      0005EA                       1071 00145$:
      0005EA 84               [ 1] 1072 	pop	a
                                   1073 ;	user/lcd5110.c: 320: if (mode == PIXEL_OFF)
      0005EB 0D 0F            [ 1] 1074 	tnz	(0x0f, sp)
      0005ED 26 0B            [ 1] 1075 	jrne	00110$
                                   1076 ;	user/lcd5110.c: 322: data &= ( ~( 0x01 << offset ) );
      0005EF 88               [ 1] 1077 	push	a
      0005F0 7B 07            [ 1] 1078 	ld	a, (0x07, sp)
      0005F2 43               [ 1] 1079 	cpl	a
      0005F3 6B 0B            [ 1] 1080 	ld	(0x0b, sp), a
      0005F5 84               [ 1] 1081 	pop	a
      0005F6 14 0A            [ 1] 1082 	and	a, (0x0a, sp)
      0005F8 20 16            [ 2] 1083 	jra	00111$
      0005FA                       1084 00110$:
                                   1085 ;	user/lcd5110.c: 325: else if (mode == PIXEL_ON)
      0005FA 88               [ 1] 1086 	push	a
      0005FB 7B 10            [ 1] 1087 	ld	a, (0x10, sp)
      0005FD A1 01            [ 1] 1088 	cp	a, #0x01
      0005FF 84               [ 1] 1089 	pop	a
      000600 26 04            [ 1] 1090 	jrne	00107$
                                   1091 ;	user/lcd5110.c: 327: data |= ( 0x01 << offset );
      000602 1A 06            [ 1] 1092 	or	a, (0x06, sp)
      000604 20 0A            [ 2] 1093 	jra	00111$
      000606                       1094 00107$:
                                   1095 ;	user/lcd5110.c: 330: else if (mode  == PIXEL_XOR)
      000606 88               [ 1] 1096 	push	a
      000607 7B 10            [ 1] 1097 	ld	a, (0x10, sp)
      000609 A1 02            [ 1] 1098 	cp	a, #0x02
      00060B 84               [ 1] 1099 	pop	a
      00060C 26 02            [ 1] 1100 	jrne	00111$
                                   1101 ;	user/lcd5110.c: 332: data ^= ( 0x01 << offset );
      00060E 18 06            [ 1] 1102 	xor	a, (0x06, sp)
      000610                       1103 00111$:
                                   1104 ;	user/lcd5110.c: 336: LcdCache[index] = data;
      000610 1E 04            [ 2] 1105 	ldw	x, (0x04, sp)
      000612 F7               [ 1] 1106 	ld	(x), a
                                   1107 ;	user/lcd5110.c: 338: if (index < BottomCacheMark)
      000613 1E 02            [ 2] 1108 	ldw	x, (0x02, sp)
      000615 C3u01uF8         [ 2] 1109 	cpw	x, _BottomCacheMark+0
      000618 2E 0A            [ 1] 1110 	jrsge	00113$
                                   1111 ;	user/lcd5110.c: 341: BottomCacheMark = index;
      00061A 7B 03            [ 1] 1112 	ld	a, (0x03, sp)
      00061C C7u01uF9         [ 1] 1113 	ld	_BottomCacheMark+1, a
      00061F 7B 02            [ 1] 1114 	ld	a, (0x02, sp)
      000621 C7u01uF8         [ 1] 1115 	ld	_BottomCacheMark+0, a
      000624                       1116 00113$:
                                   1117 ;	user/lcd5110.c: 344: if (index > TopCacheMark)
      000624 1E 02            [ 2] 1118 	ldw	x, (0x02, sp)
      000626 C3u01uFA         [ 2] 1119 	cpw	x, _TopCacheMark+0
      000629 2D 0A            [ 1] 1120 	jrsle	00115$
                                   1121 ;	user/lcd5110.c: 347: TopCacheMark = index;
      00062B 7B 03            [ 1] 1122 	ld	a, (0x03, sp)
      00062D C7u01uFB         [ 1] 1123 	ld	_TopCacheMark+1, a
      000630 7B 02            [ 1] 1124 	ld	a, (0x02, sp)
      000632 C7u01uFA         [ 1] 1125 	ld	_TopCacheMark+0, a
      000635                       1126 00115$:
                                   1127 ;	user/lcd5110.c: 349: return OK;
      000635 4F               [ 1] 1128 	clr	a
      000636                       1129 00116$:
      000636 5B 0A            [ 2] 1130 	addw	sp, #10
      000638 81               [ 4] 1131 	ret
                                   1132 ;	user/lcd5110.c: 353: uint8_t LcdLine(uint8_t x1, uint8_t y1, uint8_t x2, uint8_t y2, LcdPixelMode mode)
                                   1133 ;	-----------------------------------------
                                   1134 ;	 function LcdLine
                                   1135 ;	-----------------------------------------
      000639                       1136 _LcdLine:
      000639 52 1B            [ 2] 1137 	sub	sp, #27
                                   1138 ;	user/lcd5110.c: 362: dy = y2 - y1;
      00063B 5F               [ 1] 1139 	clrw	x
      00063C 7B 21            [ 1] 1140 	ld	a, (0x21, sp)
      00063E 97               [ 1] 1141 	ld	xl, a
      00063F 7B 1F            [ 1] 1142 	ld	a, (0x1f, sp)
      000641 6B 14            [ 1] 1143 	ld	(0x14, sp), a
      000643 0F 13            [ 1] 1144 	clr	(0x13, sp)
      000645 72 F0 13         [ 2] 1145 	subw	x, (0x13, sp)
      000648 1F 0D            [ 2] 1146 	ldw	(0x0d, sp), x
                                   1147 ;	user/lcd5110.c: 363: dx = x2 - x1;
      00064A 5F               [ 1] 1148 	clrw	x
      00064B 7B 20            [ 1] 1149 	ld	a, (0x20, sp)
      00064D 97               [ 1] 1150 	ld	xl, a
      00064E 7B 1E            [ 1] 1151 	ld	a, (0x1e, sp)
      000650 6B 0C            [ 1] 1152 	ld	(0x0c, sp), a
      000652 0F 0B            [ 1] 1153 	clr	(0x0b, sp)
      000654 72 F0 0B         [ 2] 1154 	subw	x, (0x0b, sp)
      000657 1F 15            [ 2] 1155 	ldw	(0x15, sp), x
                                   1156 ;	user/lcd5110.c: 365: if (dy < 0)
      000659 0D 0D            [ 1] 1157 	tnz	(0x0d, sp)
      00065B 2A 0C            [ 1] 1158 	jrpl	00102$
                                   1159 ;	user/lcd5110.c: 367: dy    = -dy;
      00065D 1E 0D            [ 2] 1160 	ldw	x, (0x0d, sp)
      00065F 50               [ 2] 1161 	negw	x
      000660 1F 0D            [ 2] 1162 	ldw	(0x0d, sp), x
                                   1163 ;	user/lcd5110.c: 368: stepy = -1;
      000662 AE FF FF         [ 2] 1164 	ldw	x, #0xffff
      000665 1F 01            [ 2] 1165 	ldw	(0x01, sp), x
      000667 20 05            [ 2] 1166 	jra	00103$
      000669                       1167 00102$:
                                   1168 ;	user/lcd5110.c: 372: stepy = 1;
      000669 AE 00 01         [ 2] 1169 	ldw	x, #0x0001
      00066C 1F 01            [ 2] 1170 	ldw	(0x01, sp), x
      00066E                       1171 00103$:
                                   1172 ;	user/lcd5110.c: 375: if (dx < 0)
      00066E 0D 15            [ 1] 1173 	tnz	(0x15, sp)
      000670 2A 0C            [ 1] 1174 	jrpl	00105$
                                   1175 ;	user/lcd5110.c: 377: dx    = -dx;
      000672 1E 15            [ 2] 1176 	ldw	x, (0x15, sp)
      000674 50               [ 2] 1177 	negw	x
      000675 1F 15            [ 2] 1178 	ldw	(0x15, sp), x
                                   1179 ;	user/lcd5110.c: 378: stepx = -1;
      000677 AE FF FF         [ 2] 1180 	ldw	x, #0xffff
      00067A 1F 07            [ 2] 1181 	ldw	(0x07, sp), x
      00067C 20 05            [ 2] 1182 	jra	00106$
      00067E                       1183 00105$:
                                   1184 ;	user/lcd5110.c: 382: stepx = 1;
      00067E AE 00 01         [ 2] 1185 	ldw	x, #0x0001
      000681 1F 07            [ 2] 1186 	ldw	(0x07, sp), x
      000683                       1187 00106$:
                                   1188 ;	user/lcd5110.c: 385: dx <<= 1;
      000683 1E 15            [ 2] 1189 	ldw	x, (0x15, sp)
      000685 58               [ 2] 1190 	sllw	x
      000686 1F 03            [ 2] 1191 	ldw	(0x03, sp), x
                                   1192 ;	user/lcd5110.c: 386: dy <<= 1;
      000688 1E 0D            [ 2] 1193 	ldw	x, (0x0d, sp)
      00068A 58               [ 2] 1194 	sllw	x
      00068B 1F 09            [ 2] 1195 	ldw	(0x09, sp), x
                                   1196 ;	user/lcd5110.c: 389: response = LcdPixel(x1, y1, mode);
      00068D 7B 22            [ 1] 1197 	ld	a, (0x22, sp)
      00068F 88               [ 1] 1198 	push	a
      000690 7B 20            [ 1] 1199 	ld	a, (0x20, sp)
      000692 88               [ 1] 1200 	push	a
      000693 7B 20            [ 1] 1201 	ld	a, (0x20, sp)
      000695 88               [ 1] 1202 	push	a
      000696 CDr05r9B         [ 4] 1203 	call	_LcdPixel
      000699 5B 03            [ 2] 1204 	addw	sp, #3
      00069B 6B 17            [ 1] 1205 	ld	(0x17, sp), a
                                   1206 ;	user/lcd5110.c: 390: if (response)
      00069D 0D 17            [ 1] 1207 	tnz	(0x17, sp)
      00069F 27 05            [ 1] 1208 	jreq	00108$
                                   1209 ;	user/lcd5110.c: 391: return response;
      0006A1 7B 17            [ 1] 1210 	ld	a, (0x17, sp)
      0006A3 CCr07r3A         [ 2] 1211 	jp	00126$
      0006A6                       1212 00108$:
                                   1213 ;	user/lcd5110.c: 401: y1 += stepy;
      0006A6 7B 02            [ 1] 1214 	ld	a, (0x02, sp)
      0006A8 6B 12            [ 1] 1215 	ld	(0x12, sp), a
                                   1216 ;	user/lcd5110.c: 404: x1 += stepx;
      0006AA 7B 08            [ 1] 1217 	ld	a, (0x08, sp)
      0006AC 6B 11            [ 1] 1218 	ld	(0x11, sp), a
                                   1219 ;	user/lcd5110.c: 394: if (dx > dy)
      0006AE 1E 03            [ 2] 1220 	ldw	x, (0x03, sp)
      0006B0 13 09            [ 2] 1221 	cpw	x, (0x09, sp)
      0006B2 2D 43            [ 1] 1222 	jrsle	00124$
                                   1223 ;	user/lcd5110.c: 396: fraction = dy - ( dx >> 1);
      0006B4 1E 03            [ 2] 1224 	ldw	x, (0x03, sp)
      0006B6 57               [ 2] 1225 	sraw	x
      0006B7 1F 0F            [ 2] 1226 	ldw	(0x0f, sp), x
      0006B9 1E 09            [ 2] 1227 	ldw	x, (0x09, sp)
      0006BB 72 F0 0F         [ 2] 1228 	subw	x, (0x0f, sp)
      0006BE 1F 1A            [ 2] 1229 	ldw	(0x1a, sp), x
                                   1230 ;	user/lcd5110.c: 397: while (x1 != x2)
      0006C0                       1231 00113$:
      0006C0 7B 1E            [ 1] 1232 	ld	a, (0x1e, sp)
      0006C2 11 20            [ 1] 1233 	cp	a, (0x20, sp)
      0006C4 27 73            [ 1] 1234 	jreq	00125$
                                   1235 ;	user/lcd5110.c: 399: if (fraction >= 0)
      0006C6 0D 1A            [ 1] 1236 	tnz	(0x1a, sp)
      0006C8 2B 0D            [ 1] 1237 	jrmi	00110$
                                   1238 ;	user/lcd5110.c: 401: y1 += stepy;
      0006CA 7B 1F            [ 1] 1239 	ld	a, (0x1f, sp)
      0006CC 1B 12            [ 1] 1240 	add	a, (0x12, sp)
      0006CE 6B 1F            [ 1] 1241 	ld	(0x1f, sp), a
                                   1242 ;	user/lcd5110.c: 402: fraction -= dx;
      0006D0 1E 1A            [ 2] 1243 	ldw	x, (0x1a, sp)
      0006D2 72 F0 03         [ 2] 1244 	subw	x, (0x03, sp)
      0006D5 1F 1A            [ 2] 1245 	ldw	(0x1a, sp), x
      0006D7                       1246 00110$:
                                   1247 ;	user/lcd5110.c: 404: x1 += stepx;
      0006D7 7B 1E            [ 1] 1248 	ld	a, (0x1e, sp)
      0006D9 1B 11            [ 1] 1249 	add	a, (0x11, sp)
      0006DB 6B 1E            [ 1] 1250 	ld	(0x1e, sp), a
                                   1251 ;	user/lcd5110.c: 405: fraction += dy;
      0006DD 1E 1A            [ 2] 1252 	ldw	x, (0x1a, sp)
      0006DF 72 FB 09         [ 2] 1253 	addw	x, (0x09, sp)
      0006E2 1F 1A            [ 2] 1254 	ldw	(0x1a, sp), x
                                   1255 ;	user/lcd5110.c: 407: response = LcdPixel(x1, y1, mode);
      0006E4 7B 22            [ 1] 1256 	ld	a, (0x22, sp)
      0006E6 88               [ 1] 1257 	push	a
      0006E7 7B 20            [ 1] 1258 	ld	a, (0x20, sp)
      0006E9 88               [ 1] 1259 	push	a
      0006EA 7B 20            [ 1] 1260 	ld	a, (0x20, sp)
      0006EC 88               [ 1] 1261 	push	a
      0006ED CDr05r9B         [ 4] 1262 	call	_LcdPixel
      0006F0 5B 03            [ 2] 1263 	addw	sp, #3
                                   1264 ;	user/lcd5110.c: 408: if(response)
      0006F2 4D               [ 1] 1265 	tnz	a
      0006F3 27 CB            [ 1] 1266 	jreq	00113$
                                   1267 ;	user/lcd5110.c: 409: return response;
      0006F5 20 43            [ 2] 1268 	jra	00126$
      0006F7                       1269 00124$:
                                   1270 ;	user/lcd5110.c: 415: fraction = dx - ( dy >> 1);
      0006F7 1E 09            [ 2] 1271 	ldw	x, (0x09, sp)
      0006F9 57               [ 2] 1272 	sraw	x
      0006FA 1F 18            [ 2] 1273 	ldw	(0x18, sp), x
      0006FC 1E 03            [ 2] 1274 	ldw	x, (0x03, sp)
      0006FE 72 F0 18         [ 2] 1275 	subw	x, (0x18, sp)
      000701 1F 05            [ 2] 1276 	ldw	(0x05, sp), x
                                   1277 ;	user/lcd5110.c: 416: while (y1 != y2)
      000703                       1278 00120$:
      000703 7B 1F            [ 1] 1279 	ld	a, (0x1f, sp)
      000705 11 21            [ 1] 1280 	cp	a, (0x21, sp)
      000707 27 30            [ 1] 1281 	jreq	00125$
                                   1282 ;	user/lcd5110.c: 418: if (fraction >= 0)
      000709 0D 05            [ 1] 1283 	tnz	(0x05, sp)
      00070B 2B 0D            [ 1] 1284 	jrmi	00117$
                                   1285 ;	user/lcd5110.c: 420: x1 += stepx;
      00070D 7B 1E            [ 1] 1286 	ld	a, (0x1e, sp)
      00070F 1B 11            [ 1] 1287 	add	a, (0x11, sp)
      000711 6B 1E            [ 1] 1288 	ld	(0x1e, sp), a
                                   1289 ;	user/lcd5110.c: 421: fraction -= dy;
      000713 1E 05            [ 2] 1290 	ldw	x, (0x05, sp)
      000715 72 F0 09         [ 2] 1291 	subw	x, (0x09, sp)
      000718 1F 05            [ 2] 1292 	ldw	(0x05, sp), x
      00071A                       1293 00117$:
                                   1294 ;	user/lcd5110.c: 423: y1 += stepy;
      00071A 7B 1F            [ 1] 1295 	ld	a, (0x1f, sp)
      00071C 1B 12            [ 1] 1296 	add	a, (0x12, sp)
      00071E 6B 1F            [ 1] 1297 	ld	(0x1f, sp), a
                                   1298 ;	user/lcd5110.c: 424: fraction += dx;
      000720 1E 05            [ 2] 1299 	ldw	x, (0x05, sp)
      000722 72 FB 03         [ 2] 1300 	addw	x, (0x03, sp)
      000725 1F 05            [ 2] 1301 	ldw	(0x05, sp), x
                                   1302 ;	user/lcd5110.c: 426: response = LcdPixel(x1, y1, mode);
      000727 7B 22            [ 1] 1303 	ld	a, (0x22, sp)
      000729 88               [ 1] 1304 	push	a
      00072A 7B 20            [ 1] 1305 	ld	a, (0x20, sp)
      00072C 88               [ 1] 1306 	push	a
      00072D 7B 20            [ 1] 1307 	ld	a, (0x20, sp)
      00072F 88               [ 1] 1308 	push	a
      000730 CDr05r9B         [ 4] 1309 	call	_LcdPixel
      000733 5B 03            [ 2] 1310 	addw	sp, #3
                                   1311 ;	user/lcd5110.c: 427: if (response)
      000735 4D               [ 1] 1312 	tnz	a
      000736 27 CB            [ 1] 1313 	jreq	00120$
                                   1314 ;	user/lcd5110.c: 428: return response;
                                   1315 ;	user/lcd5110.c: 432: return OK;
      000738 21                    1316 	.byte 0x21
      000739                       1317 00125$:
      000739 4F               [ 1] 1318 	clr	a
      00073A                       1319 00126$:
      00073A 5B 1B            [ 2] 1320 	addw	sp, #27
      00073C 81               [ 4] 1321 	ret
                                   1322 ;	user/lcd5110.c: 436: uint8_t LcdCircle(uint8_t x, uint8_t y, uint8_t radius, LcdPixelMode mode)
                                   1323 ;	-----------------------------------------
                                   1324 ;	 function LcdCircle
                                   1325 ;	-----------------------------------------
      00073D                       1326 _LcdCircle:
      00073D 52 0F            [ 2] 1327 	sub	sp, #15
                                   1328 ;	user/lcd5110.c: 438: int8_t xc = 0;
      00073F 0F 01            [ 1] 1329 	clr	(0x01, sp)
                                   1330 ;	user/lcd5110.c: 442: if (x >= LCD_X_RES || y >= LCD_Y_RES) return OUT_OF_BORDER;
      000741 7B 12            [ 1] 1331 	ld	a, (0x12, sp)
      000743 A1 54            [ 1] 1332 	cp	a, #0x54
      000745 24 06            [ 1] 1333 	jrnc	00101$
      000747 7B 13            [ 1] 1334 	ld	a, (0x13, sp)
      000749 A1 30            [ 1] 1335 	cp	a, #0x30
      00074B 25 05            [ 1] 1336 	jrc	00102$
      00074D                       1337 00101$:
      00074D A6 01            [ 1] 1338 	ld	a, #0x01
      00074F CCr08r51         [ 2] 1339 	jp	00110$
      000752                       1340 00102$:
                                   1341 ;	user/lcd5110.c: 444: yc = radius;
      000752 7B 14            [ 1] 1342 	ld	a, (0x14, sp)
      000754 6B 02            [ 1] 1343 	ld	(0x02, sp), a
                                   1344 ;	user/lcd5110.c: 445: p = 3 - (radius<<1);
      000756 7B 02            [ 1] 1345 	ld	a, (0x02, sp)
      000758 48               [ 1] 1346 	sll	a
      000759 6B 0C            [ 1] 1347 	ld	(0x0c, sp), a
      00075B A6 03            [ 1] 1348 	ld	a, #0x03
      00075D 10 0C            [ 1] 1349 	sub	a, (0x0c, sp)
      00075F 6B 03            [ 1] 1350 	ld	(0x03, sp), a
                                   1351 ;	user/lcd5110.c: 446: while (xc <= yc)  
      000761 7B 02            [ 1] 1352 	ld	a, (0x02, sp)
      000763 6B 06            [ 1] 1353 	ld	(0x06, sp), a
      000765                       1354 00107$:
      000765 7B 01            [ 1] 1355 	ld	a, (0x01, sp)
      000767 11 06            [ 1] 1356 	cp	a, (0x06, sp)
      000769 2D 03            [ 1] 1357 	jrsle	00131$
      00076B CCr08r50         [ 2] 1358 	jp	00109$
      00076E                       1359 00131$:
                                   1360 ;	user/lcd5110.c: 448: LcdPixel(x + xc, y + yc, mode);
      00076E 7B 13            [ 1] 1361 	ld	a, (0x13, sp)
      000770 95               [ 1] 1362 	ld	xh, a
      000771 1B 06            [ 1] 1363 	add	a, (0x06, sp)
      000773 6B 04            [ 1] 1364 	ld	(0x04, sp), a
      000775 7B 12            [ 1] 1365 	ld	a, (0x12, sp)
      000777 97               [ 1] 1366 	ld	xl, a
      000778 1B 01            [ 1] 1367 	add	a, (0x01, sp)
      00077A 6B 09            [ 1] 1368 	ld	(0x09, sp), a
      00077C 89               [ 2] 1369 	pushw	x
      00077D 7B 17            [ 1] 1370 	ld	a, (0x17, sp)
      00077F 88               [ 1] 1371 	push	a
      000780 7B 07            [ 1] 1372 	ld	a, (0x07, sp)
      000782 88               [ 1] 1373 	push	a
      000783 7B 0D            [ 1] 1374 	ld	a, (0x0d, sp)
      000785 88               [ 1] 1375 	push	a
      000786 CDr05r9B         [ 4] 1376 	call	_LcdPixel
      000789 5B 03            [ 2] 1377 	addw	sp, #3
      00078B 85               [ 2] 1378 	popw	x
                                   1379 ;	user/lcd5110.c: 449: LcdPixel(x + xc, y - yc, mode);
      00078C 9E               [ 1] 1380 	ld	a, xh
      00078D 10 06            [ 1] 1381 	sub	a, (0x06, sp)
      00078F 6B 0F            [ 1] 1382 	ld	(0x0f, sp), a
      000791 89               [ 2] 1383 	pushw	x
      000792 7B 17            [ 1] 1384 	ld	a, (0x17, sp)
      000794 88               [ 1] 1385 	push	a
      000795 7B 12            [ 1] 1386 	ld	a, (0x12, sp)
      000797 88               [ 1] 1387 	push	a
      000798 7B 0D            [ 1] 1388 	ld	a, (0x0d, sp)
      00079A 88               [ 1] 1389 	push	a
      00079B CDr05r9B         [ 4] 1390 	call	_LcdPixel
      00079E 5B 03            [ 2] 1391 	addw	sp, #3
      0007A0 85               [ 2] 1392 	popw	x
                                   1393 ;	user/lcd5110.c: 450: LcdPixel(x - xc, y + yc, mode);
      0007A1 9F               [ 1] 1394 	ld	a, xl
      0007A2 10 01            [ 1] 1395 	sub	a, (0x01, sp)
      0007A4 6B 07            [ 1] 1396 	ld	(0x07, sp), a
      0007A6 89               [ 2] 1397 	pushw	x
      0007A7 7B 17            [ 1] 1398 	ld	a, (0x17, sp)
      0007A9 88               [ 1] 1399 	push	a
      0007AA 7B 07            [ 1] 1400 	ld	a, (0x07, sp)
      0007AC 88               [ 1] 1401 	push	a
      0007AD 7B 0B            [ 1] 1402 	ld	a, (0x0b, sp)
      0007AF 88               [ 1] 1403 	push	a
      0007B0 CDr05r9B         [ 4] 1404 	call	_LcdPixel
      0007B3 5B 03            [ 2] 1405 	addw	sp, #3
      0007B5 85               [ 2] 1406 	popw	x
                                   1407 ;	user/lcd5110.c: 451: LcdPixel(x - xc, y - yc, mode);
      0007B6 89               [ 2] 1408 	pushw	x
      0007B7 7B 17            [ 1] 1409 	ld	a, (0x17, sp)
      0007B9 88               [ 1] 1410 	push	a
      0007BA 7B 12            [ 1] 1411 	ld	a, (0x12, sp)
      0007BC 88               [ 1] 1412 	push	a
      0007BD 7B 0B            [ 1] 1413 	ld	a, (0x0b, sp)
      0007BF 88               [ 1] 1414 	push	a
      0007C0 CDr05r9B         [ 4] 1415 	call	_LcdPixel
      0007C3 5B 03            [ 2] 1416 	addw	sp, #3
      0007C5 85               [ 2] 1417 	popw	x
                                   1418 ;	user/lcd5110.c: 452: LcdPixel(x + yc, y + xc, mode);
      0007C6 9E               [ 1] 1419 	ld	a, xh
      0007C7 1B 01            [ 1] 1420 	add	a, (0x01, sp)
      0007C9 6B 0B            [ 1] 1421 	ld	(0x0b, sp), a
      0007CB 9F               [ 1] 1422 	ld	a, xl
      0007CC 1B 06            [ 1] 1423 	add	a, (0x06, sp)
      0007CE 6B 0A            [ 1] 1424 	ld	(0x0a, sp), a
      0007D0 89               [ 2] 1425 	pushw	x
      0007D1 7B 17            [ 1] 1426 	ld	a, (0x17, sp)
      0007D3 88               [ 1] 1427 	push	a
      0007D4 7B 0E            [ 1] 1428 	ld	a, (0x0e, sp)
      0007D6 88               [ 1] 1429 	push	a
      0007D7 7B 0E            [ 1] 1430 	ld	a, (0x0e, sp)
      0007D9 88               [ 1] 1431 	push	a
      0007DA CDr05r9B         [ 4] 1432 	call	_LcdPixel
      0007DD 5B 03            [ 2] 1433 	addw	sp, #3
      0007DF 85               [ 2] 1434 	popw	x
                                   1435 ;	user/lcd5110.c: 453: LcdPixel(x + yc, y - xc, mode);
      0007E0 9E               [ 1] 1436 	ld	a, xh
      0007E1 10 01            [ 1] 1437 	sub	a, (0x01, sp)
      0007E3 95               [ 1] 1438 	ld	xh, a
      0007E4 89               [ 2] 1439 	pushw	x
      0007E5 7B 17            [ 1] 1440 	ld	a, (0x17, sp)
      0007E7 88               [ 1] 1441 	push	a
      0007E8 9E               [ 1] 1442 	ld	a, xh
      0007E9 88               [ 1] 1443 	push	a
      0007EA 7B 0E            [ 1] 1444 	ld	a, (0x0e, sp)
      0007EC 88               [ 1] 1445 	push	a
      0007ED CDr05r9B         [ 4] 1446 	call	_LcdPixel
      0007F0 5B 03            [ 2] 1447 	addw	sp, #3
      0007F2 85               [ 2] 1448 	popw	x
                                   1449 ;	user/lcd5110.c: 454: LcdPixel(x - yc, y + xc, mode);
      0007F3 9F               [ 1] 1450 	ld	a, xl
      0007F4 10 06            [ 1] 1451 	sub	a, (0x06, sp)
      0007F6 97               [ 1] 1452 	ld	xl, a
      0007F7 89               [ 2] 1453 	pushw	x
      0007F8 7B 17            [ 1] 1454 	ld	a, (0x17, sp)
      0007FA 88               [ 1] 1455 	push	a
      0007FB 7B 0E            [ 1] 1456 	ld	a, (0x0e, sp)
      0007FD 88               [ 1] 1457 	push	a
      0007FE 9F               [ 1] 1458 	ld	a, xl
      0007FF 88               [ 1] 1459 	push	a
      000800 CDr05r9B         [ 4] 1460 	call	_LcdPixel
      000803 5B 03            [ 2] 1461 	addw	sp, #3
      000805 85               [ 2] 1462 	popw	x
                                   1463 ;	user/lcd5110.c: 455: LcdPixel(x - yc, y - xc, mode);
      000806 7B 15            [ 1] 1464 	ld	a, (0x15, sp)
      000808 88               [ 1] 1465 	push	a
      000809 9E               [ 1] 1466 	ld	a, xh
      00080A 88               [ 1] 1467 	push	a
      00080B 9F               [ 1] 1468 	ld	a, xl
      00080C 88               [ 1] 1469 	push	a
      00080D CDr05r9B         [ 4] 1470 	call	_LcdPixel
      000810 5B 03            [ 2] 1471 	addw	sp, #3
                                   1472 ;	user/lcd5110.c: 456: if (p < 0) p += (xc++ << 2) + 6;
      000812 7B 01            [ 1] 1473 	ld	a, (0x01, sp)
      000814 4C               [ 1] 1474 	inc	a
      000815 0D 03            [ 1] 1475 	tnz	(0x03, sp)
      000817 2A 12            [ 1] 1476 	jrpl	00105$
      000819 41               [ 1] 1477 	exg	a, xl
      00081A 7B 01            [ 1] 1478 	ld	a, (0x01, sp)
      00081C 41               [ 1] 1479 	exg	a, xl
      00081D 6B 01            [ 1] 1480 	ld	(0x01, sp), a
      00081F 9F               [ 1] 1481 	ld	a, xl
      000820 48               [ 1] 1482 	sll	a
      000821 48               [ 1] 1483 	sll	a
      000822 AB 06            [ 1] 1484 	add	a, #0x06
      000824 1B 03            [ 1] 1485 	add	a, (0x03, sp)
      000826 6B 03            [ 1] 1486 	ld	(0x03, sp), a
      000828 CCr07r65         [ 2] 1487 	jp	00107$
      00082B                       1488 00105$:
                                   1489 ;	user/lcd5110.c: 457: else p += ((xc++ - yc--)<<2) + 10;
      00082B 88               [ 1] 1490 	push	a
      00082C 7B 02            [ 1] 1491 	ld	a, (0x02, sp)
      00082E 6B 0F            [ 1] 1492 	ld	(0x0f, sp), a
      000830 84               [ 1] 1493 	pop	a
      000831 6B 01            [ 1] 1494 	ld	(0x01, sp), a
      000833 7B 06            [ 1] 1495 	ld	a, (0x06, sp)
      000835 6B 05            [ 1] 1496 	ld	(0x05, sp), a
      000837 0A 06            [ 1] 1497 	dec	(0x06, sp)
      000839 7B 0E            [ 1] 1498 	ld	a, (0x0e, sp)
      00083B 10 05            [ 1] 1499 	sub	a, (0x05, sp)
      00083D 6B 08            [ 1] 1500 	ld	(0x08, sp), a
      00083F 7B 08            [ 1] 1501 	ld	a, (0x08, sp)
      000841 48               [ 1] 1502 	sll	a
      000842 48               [ 1] 1503 	sll	a
      000843 6B 0D            [ 1] 1504 	ld	(0x0d, sp), a
      000845 7B 0D            [ 1] 1505 	ld	a, (0x0d, sp)
      000847 AB 0A            [ 1] 1506 	add	a, #0x0a
      000849 1B 03            [ 1] 1507 	add	a, (0x03, sp)
      00084B 6B 03            [ 1] 1508 	ld	(0x03, sp), a
      00084D CCr07r65         [ 2] 1509 	jp	00107$
      000850                       1510 00109$:
                                   1511 ;	user/lcd5110.c: 460: return OK;
      000850 4F               [ 1] 1512 	clr	a
      000851                       1513 00110$:
      000851 5B 0F            [ 2] 1514 	addw	sp, #15
      000853 81               [ 4] 1515 	ret
                                   1516 ;	user/lcd5110.c: 464: uint8_t LcdRect(uint8_t x1, uint8_t y1, uint8_t x2, uint8_t y2, LcdPixelMode mode)
                                   1517 ;	-----------------------------------------
                                   1518 ;	 function LcdRect
                                   1519 ;	-----------------------------------------
      000854                       1520 _LcdRect:
      000854 89               [ 2] 1521 	pushw	x
                                   1522 ;	user/lcd5110.c: 469: if ((x1 >= LCD_X_RES) ||  (x2 >= LCD_X_RES) || (y1 >= LCD_Y_RES) || (y2 >= LCD_Y_RES))
      000855 7B 05            [ 1] 1523 	ld	a, (0x05, sp)
      000857 A1 54            [ 1] 1524 	cp	a, #0x54
      000859 24 12            [ 1] 1525 	jrnc	00101$
      00085B 7B 07            [ 1] 1526 	ld	a, (0x07, sp)
      00085D A1 54            [ 1] 1527 	cp	a, #0x54
      00085F 24 0C            [ 1] 1528 	jrnc	00101$
      000861 7B 06            [ 1] 1529 	ld	a, (0x06, sp)
      000863 A1 30            [ 1] 1530 	cp	a, #0x30
      000865 24 06            [ 1] 1531 	jrnc	00101$
      000867 7B 08            [ 1] 1532 	ld	a, (0x08, sp)
      000869 A1 30            [ 1] 1533 	cp	a, #0x30
      00086B 25 04            [ 1] 1534 	jrc	00102$
      00086D                       1535 00101$:
                                   1536 ;	user/lcd5110.c: 470: return OUT_OF_BORDER;
      00086D A6 01            [ 1] 1537 	ld	a, #0x01
      00086F 20 61            [ 2] 1538 	jra	00117$
      000871                       1539 00102$:
                                   1540 ;	user/lcd5110.c: 472: if ((x2 > x1) && (y2 > y1))
      000871 7B 07            [ 1] 1541 	ld	a, (0x07, sp)
      000873 11 05            [ 1] 1542 	cp	a, (0x05, sp)
      000875 23 5A            [ 2] 1543 	jrule	00109$
      000877 7B 08            [ 1] 1544 	ld	a, (0x08, sp)
      000879 11 06            [ 1] 1545 	cp	a, (0x06, sp)
      00087B 23 54            [ 2] 1546 	jrule	00109$
                                   1547 ;	user/lcd5110.c: 475: for (tmpIdx = x1; tmpIdx <= x2; tmpIdx++)
      00087D 7B 05            [ 1] 1548 	ld	a, (0x05, sp)
      00087F 6B 01            [ 1] 1549 	ld	(0x01, sp), a
      000881                       1550 00112$:
      000881 7B 01            [ 1] 1551 	ld	a, (0x01, sp)
      000883 11 07            [ 1] 1552 	cp	a, (0x07, sp)
      000885 22 20            [ 1] 1553 	jrugt	00106$
                                   1554 ;	user/lcd5110.c: 477: LcdPixel(tmpIdx, y1, mode);
      000887 7B 09            [ 1] 1555 	ld	a, (0x09, sp)
      000889 88               [ 1] 1556 	push	a
      00088A 7B 07            [ 1] 1557 	ld	a, (0x07, sp)
      00088C 88               [ 1] 1558 	push	a
      00088D 7B 03            [ 1] 1559 	ld	a, (0x03, sp)
      00088F 88               [ 1] 1560 	push	a
      000890 CDr05r9B         [ 4] 1561 	call	_LcdPixel
      000893 5B 03            [ 2] 1562 	addw	sp, #3
                                   1563 ;	user/lcd5110.c: 478: LcdPixel(tmpIdx, y2, mode);
      000895 7B 09            [ 1] 1564 	ld	a, (0x09, sp)
      000897 88               [ 1] 1565 	push	a
      000898 7B 09            [ 1] 1566 	ld	a, (0x09, sp)
      00089A 88               [ 1] 1567 	push	a
      00089B 7B 03            [ 1] 1568 	ld	a, (0x03, sp)
      00089D 88               [ 1] 1569 	push	a
      00089E CDr05r9B         [ 4] 1570 	call	_LcdPixel
      0008A1 5B 03            [ 2] 1571 	addw	sp, #3
                                   1572 ;	user/lcd5110.c: 475: for (tmpIdx = x1; tmpIdx <= x2; tmpIdx++)
      0008A3 0C 01            [ 1] 1573 	inc	(0x01, sp)
      0008A5 20 DA            [ 2] 1574 	jra	00112$
      0008A7                       1575 00106$:
                                   1576 ;	user/lcd5110.c: 482: for (tmpIdx = y1; tmpIdx <= y2; tmpIdx++)
      0008A7 7B 06            [ 1] 1577 	ld	a, (0x06, sp)
      0008A9 6B 02            [ 1] 1578 	ld	(0x02, sp), a
      0008AB                       1579 00115$:
      0008AB 7B 02            [ 1] 1580 	ld	a, (0x02, sp)
      0008AD 11 08            [ 1] 1581 	cp	a, (0x08, sp)
      0008AF 22 20            [ 1] 1582 	jrugt	00109$
                                   1583 ;	user/lcd5110.c: 484: LcdPixel(x1, tmpIdx, mode);
      0008B1 7B 09            [ 1] 1584 	ld	a, (0x09, sp)
      0008B3 88               [ 1] 1585 	push	a
      0008B4 7B 03            [ 1] 1586 	ld	a, (0x03, sp)
      0008B6 88               [ 1] 1587 	push	a
      0008B7 7B 07            [ 1] 1588 	ld	a, (0x07, sp)
      0008B9 88               [ 1] 1589 	push	a
      0008BA CDr05r9B         [ 4] 1590 	call	_LcdPixel
      0008BD 5B 03            [ 2] 1591 	addw	sp, #3
                                   1592 ;	user/lcd5110.c: 485: LcdPixel(x2, tmpIdx, mode);
      0008BF 7B 09            [ 1] 1593 	ld	a, (0x09, sp)
      0008C1 88               [ 1] 1594 	push	a
      0008C2 7B 03            [ 1] 1595 	ld	a, (0x03, sp)
      0008C4 88               [ 1] 1596 	push	a
      0008C5 7B 09            [ 1] 1597 	ld	a, (0x09, sp)
      0008C7 88               [ 1] 1598 	push	a
      0008C8 CDr05r9B         [ 4] 1599 	call	_LcdPixel
      0008CB 5B 03            [ 2] 1600 	addw	sp, #3
                                   1601 ;	user/lcd5110.c: 482: for (tmpIdx = y1; tmpIdx <= y2; tmpIdx++)
      0008CD 0C 02            [ 1] 1602 	inc	(0x02, sp)
      0008CF 20 DA            [ 2] 1603 	jra	00115$
      0008D1                       1604 00109$:
                                   1605 ;	user/lcd5110.c: 488: return OK;
      0008D1 4F               [ 1] 1606 	clr	a
      0008D2                       1607 00117$:
      0008D2 85               [ 2] 1608 	popw	x
      0008D3 81               [ 4] 1609 	ret
                                   1610 ;	user/lcd5110.c: 492: void LcdImage(const uint8_t *imageData)
                                   1611 ;	-----------------------------------------
                                   1612 ;	 function LcdImage
                                   1613 ;	-----------------------------------------
      0008D4                       1614 _LcdImage:
                                   1615 ;	user/lcd5110.c: 495: memcpy(LcdCache, imageData, LCD_CACHE_SIZE);
      0008D4 16 03            [ 2] 1616 	ldw	y, (0x03, sp)
      0008D6 AEr00r00         [ 2] 1617 	ldw	x, #_LcdCache+0
      0008D9 4B F8            [ 1] 1618 	push	#0xf8
      0008DB 4B 01            [ 1] 1619 	push	#0x01
      0008DD 90 89            [ 2] 1620 	pushw	y
      0008DF 89               [ 2] 1621 	pushw	x
      0008E0 CDr00r00         [ 4] 1622 	call	_memcpy
      0008E3 5B 06            [ 2] 1623 	addw	sp, #6
                                   1624 ;	user/lcd5110.c: 497: BottomCacheMark = 0;
      0008E5 5F               [ 1] 1625 	clrw	x
      0008E6 CFu01uF8         [ 2] 1626 	ldw	_BottomCacheMark+0, x
                                   1627 ;	user/lcd5110.c: 498: TopCacheMark = LCD_CACHE_SIZE - 1;
      0008E9 AE 01 F7         [ 2] 1628 	ldw	x, #0x01f7
      0008EC CFu01uFA         [ 2] 1629 	ldw	_TopCacheMark+0, x
      0008EF 81               [ 4] 1630 	ret
                                   1631 	.area CODE
      0008F0                       1632 _FontLookup:
      0008F0 00                    1633 	.db #0x00	; 0
      0008F1 00                    1634 	.db #0x00	; 0
      0008F2 00                    1635 	.db #0x00	; 0
      0008F3 00                    1636 	.db #0x00	; 0
      0008F4 00                    1637 	.db #0x00	; 0
      0008F5 00                    1638 	.db #0x00	; 0
      0008F6 00                    1639 	.db #0x00	; 0
      0008F7 5F                    1640 	.db #0x5f	; 95
      0008F8 00                    1641 	.db #0x00	; 0
      0008F9 00                    1642 	.db #0x00	; 0
      0008FA 00                    1643 	.db #0x00	; 0
      0008FB 07                    1644 	.db #0x07	; 7
      0008FC 00                    1645 	.db #0x00	; 0
      0008FD 07                    1646 	.db #0x07	; 7
      0008FE 00                    1647 	.db #0x00	; 0
      0008FF 14                    1648 	.db #0x14	; 20
      000900 7F                    1649 	.db #0x7f	; 127
      000901 14                    1650 	.db #0x14	; 20
      000902 7F                    1651 	.db #0x7f	; 127
      000903 14                    1652 	.db #0x14	; 20
      000904 24                    1653 	.db #0x24	; 36
      000905 2A                    1654 	.db #0x2a	; 42
      000906 7F                    1655 	.db #0x7f	; 127
      000907 2A                    1656 	.db #0x2a	; 42
      000908 12                    1657 	.db #0x12	; 18
      000909 4C                    1658 	.db #0x4c	; 76	'L'
      00090A 2C                    1659 	.db #0x2c	; 44
      00090B 10                    1660 	.db #0x10	; 16
      00090C 68                    1661 	.db #0x68	; 104	'h'
      00090D 64                    1662 	.db #0x64	; 100	'd'
      00090E 36                    1663 	.db #0x36	; 54	'6'
      00090F 49                    1664 	.db #0x49	; 73	'I'
      000910 55                    1665 	.db #0x55	; 85	'U'
      000911 22                    1666 	.db #0x22	; 34
      000912 50                    1667 	.db #0x50	; 80	'P'
      000913 00                    1668 	.db #0x00	; 0
      000914 05                    1669 	.db #0x05	; 5
      000915 03                    1670 	.db #0x03	; 3
      000916 00                    1671 	.db #0x00	; 0
      000917 00                    1672 	.db #0x00	; 0
      000918 00                    1673 	.db #0x00	; 0
      000919 1C                    1674 	.db #0x1c	; 28
      00091A 22                    1675 	.db #0x22	; 34
      00091B 41                    1676 	.db #0x41	; 65	'A'
      00091C 00                    1677 	.db #0x00	; 0
      00091D 00                    1678 	.db #0x00	; 0
      00091E 41                    1679 	.db #0x41	; 65	'A'
      00091F 22                    1680 	.db #0x22	; 34
      000920 1C                    1681 	.db #0x1c	; 28
      000921 00                    1682 	.db #0x00	; 0
      000922 14                    1683 	.db #0x14	; 20
      000923 08                    1684 	.db #0x08	; 8
      000924 3E                    1685 	.db #0x3e	; 62
      000925 08                    1686 	.db #0x08	; 8
      000926 14                    1687 	.db #0x14	; 20
      000927 08                    1688 	.db #0x08	; 8
      000928 08                    1689 	.db #0x08	; 8
      000929 3E                    1690 	.db #0x3e	; 62
      00092A 08                    1691 	.db #0x08	; 8
      00092B 08                    1692 	.db #0x08	; 8
      00092C 00                    1693 	.db #0x00	; 0
      00092D 00                    1694 	.db #0x00	; 0
      00092E 50                    1695 	.db #0x50	; 80	'P'
      00092F 30                    1696 	.db #0x30	; 48	'0'
      000930 00                    1697 	.db #0x00	; 0
      000931 10                    1698 	.db #0x10	; 16
      000932 10                    1699 	.db #0x10	; 16
      000933 10                    1700 	.db #0x10	; 16
      000934 10                    1701 	.db #0x10	; 16
      000935 10                    1702 	.db #0x10	; 16
      000936 00                    1703 	.db #0x00	; 0
      000937 60                    1704 	.db #0x60	; 96
      000938 60                    1705 	.db #0x60	; 96
      000939 00                    1706 	.db #0x00	; 0
      00093A 00                    1707 	.db #0x00	; 0
      00093B 20                    1708 	.db #0x20	; 32
      00093C 10                    1709 	.db #0x10	; 16
      00093D 08                    1710 	.db #0x08	; 8
      00093E 04                    1711 	.db #0x04	; 4
      00093F 02                    1712 	.db #0x02	; 2
      000940 3E                    1713 	.db #0x3e	; 62
      000941 51                    1714 	.db #0x51	; 81	'Q'
      000942 49                    1715 	.db #0x49	; 73	'I'
      000943 45                    1716 	.db #0x45	; 69	'E'
      000944 3E                    1717 	.db #0x3e	; 62
      000945 00                    1718 	.db #0x00	; 0
      000946 42                    1719 	.db #0x42	; 66	'B'
      000947 7F                    1720 	.db #0x7f	; 127
      000948 40                    1721 	.db #0x40	; 64
      000949 00                    1722 	.db #0x00	; 0
      00094A 42                    1723 	.db #0x42	; 66	'B'
      00094B 61                    1724 	.db #0x61	; 97	'a'
      00094C 51                    1725 	.db #0x51	; 81	'Q'
      00094D 49                    1726 	.db #0x49	; 73	'I'
      00094E 46                    1727 	.db #0x46	; 70	'F'
      00094F 21                    1728 	.db #0x21	; 33
      000950 41                    1729 	.db #0x41	; 65	'A'
      000951 45                    1730 	.db #0x45	; 69	'E'
      000952 4B                    1731 	.db #0x4b	; 75	'K'
      000953 31                    1732 	.db #0x31	; 49	'1'
      000954 18                    1733 	.db #0x18	; 24
      000955 14                    1734 	.db #0x14	; 20
      000956 12                    1735 	.db #0x12	; 18
      000957 7F                    1736 	.db #0x7f	; 127
      000958 10                    1737 	.db #0x10	; 16
      000959 27                    1738 	.db #0x27	; 39
      00095A 45                    1739 	.db #0x45	; 69	'E'
      00095B 45                    1740 	.db #0x45	; 69	'E'
      00095C 45                    1741 	.db #0x45	; 69	'E'
      00095D 39                    1742 	.db #0x39	; 57	'9'
      00095E 3C                    1743 	.db #0x3c	; 60
      00095F 4A                    1744 	.db #0x4a	; 74	'J'
      000960 49                    1745 	.db #0x49	; 73	'I'
      000961 49                    1746 	.db #0x49	; 73	'I'
      000962 30                    1747 	.db #0x30	; 48	'0'
      000963 01                    1748 	.db #0x01	; 1
      000964 71                    1749 	.db #0x71	; 113	'q'
      000965 09                    1750 	.db #0x09	; 9
      000966 05                    1751 	.db #0x05	; 5
      000967 03                    1752 	.db #0x03	; 3
      000968 36                    1753 	.db #0x36	; 54	'6'
      000969 49                    1754 	.db #0x49	; 73	'I'
      00096A 49                    1755 	.db #0x49	; 73	'I'
      00096B 49                    1756 	.db #0x49	; 73	'I'
      00096C 36                    1757 	.db #0x36	; 54	'6'
      00096D 06                    1758 	.db #0x06	; 6
      00096E 49                    1759 	.db #0x49	; 73	'I'
      00096F 49                    1760 	.db #0x49	; 73	'I'
      000970 29                    1761 	.db #0x29	; 41
      000971 1E                    1762 	.db #0x1e	; 30
      000972 00                    1763 	.db #0x00	; 0
      000973 36                    1764 	.db #0x36	; 54	'6'
      000974 36                    1765 	.db #0x36	; 54	'6'
      000975 00                    1766 	.db #0x00	; 0
      000976 00                    1767 	.db #0x00	; 0
      000977 00                    1768 	.db #0x00	; 0
      000978 56                    1769 	.db #0x56	; 86	'V'
      000979 36                    1770 	.db #0x36	; 54	'6'
      00097A 00                    1771 	.db #0x00	; 0
      00097B 00                    1772 	.db #0x00	; 0
      00097C 08                    1773 	.db #0x08	; 8
      00097D 14                    1774 	.db #0x14	; 20
      00097E 22                    1775 	.db #0x22	; 34
      00097F 41                    1776 	.db #0x41	; 65	'A'
      000980 00                    1777 	.db #0x00	; 0
      000981 14                    1778 	.db #0x14	; 20
      000982 14                    1779 	.db #0x14	; 20
      000983 14                    1780 	.db #0x14	; 20
      000984 14                    1781 	.db #0x14	; 20
      000985 14                    1782 	.db #0x14	; 20
      000986 00                    1783 	.db #0x00	; 0
      000987 41                    1784 	.db #0x41	; 65	'A'
      000988 22                    1785 	.db #0x22	; 34
      000989 14                    1786 	.db #0x14	; 20
      00098A 08                    1787 	.db #0x08	; 8
      00098B 02                    1788 	.db #0x02	; 2
      00098C 01                    1789 	.db #0x01	; 1
      00098D 51                    1790 	.db #0x51	; 81	'Q'
      00098E 09                    1791 	.db #0x09	; 9
      00098F 06                    1792 	.db #0x06	; 6
      000990 32                    1793 	.db #0x32	; 50	'2'
      000991 49                    1794 	.db #0x49	; 73	'I'
      000992 79                    1795 	.db #0x79	; 121	'y'
      000993 41                    1796 	.db #0x41	; 65	'A'
      000994 3E                    1797 	.db #0x3e	; 62
      000995 7E                    1798 	.db #0x7e	; 126
      000996 11                    1799 	.db #0x11	; 17
      000997 11                    1800 	.db #0x11	; 17
      000998 11                    1801 	.db #0x11	; 17
      000999 7E                    1802 	.db #0x7e	; 126
      00099A 7F                    1803 	.db #0x7f	; 127
      00099B 49                    1804 	.db #0x49	; 73	'I'
      00099C 49                    1805 	.db #0x49	; 73	'I'
      00099D 49                    1806 	.db #0x49	; 73	'I'
      00099E 36                    1807 	.db #0x36	; 54	'6'
      00099F 3E                    1808 	.db #0x3e	; 62
      0009A0 41                    1809 	.db #0x41	; 65	'A'
      0009A1 41                    1810 	.db #0x41	; 65	'A'
      0009A2 41                    1811 	.db #0x41	; 65	'A'
      0009A3 22                    1812 	.db #0x22	; 34
      0009A4 7F                    1813 	.db #0x7f	; 127
      0009A5 41                    1814 	.db #0x41	; 65	'A'
      0009A6 41                    1815 	.db #0x41	; 65	'A'
      0009A7 22                    1816 	.db #0x22	; 34
      0009A8 1C                    1817 	.db #0x1c	; 28
      0009A9 7F                    1818 	.db #0x7f	; 127
      0009AA 49                    1819 	.db #0x49	; 73	'I'
      0009AB 49                    1820 	.db #0x49	; 73	'I'
      0009AC 49                    1821 	.db #0x49	; 73	'I'
      0009AD 41                    1822 	.db #0x41	; 65	'A'
      0009AE 7F                    1823 	.db #0x7f	; 127
      0009AF 09                    1824 	.db #0x09	; 9
      0009B0 09                    1825 	.db #0x09	; 9
      0009B1 09                    1826 	.db #0x09	; 9
      0009B2 01                    1827 	.db #0x01	; 1
      0009B3 3E                    1828 	.db #0x3e	; 62
      0009B4 41                    1829 	.db #0x41	; 65	'A'
      0009B5 49                    1830 	.db #0x49	; 73	'I'
      0009B6 49                    1831 	.db #0x49	; 73	'I'
      0009B7 7A                    1832 	.db #0x7a	; 122	'z'
      0009B8 7F                    1833 	.db #0x7f	; 127
      0009B9 08                    1834 	.db #0x08	; 8
      0009BA 08                    1835 	.db #0x08	; 8
      0009BB 08                    1836 	.db #0x08	; 8
      0009BC 7F                    1837 	.db #0x7f	; 127
      0009BD 00                    1838 	.db #0x00	; 0
      0009BE 41                    1839 	.db #0x41	; 65	'A'
      0009BF 7F                    1840 	.db #0x7f	; 127
      0009C0 41                    1841 	.db #0x41	; 65	'A'
      0009C1 00                    1842 	.db #0x00	; 0
      0009C2 20                    1843 	.db #0x20	; 32
      0009C3 40                    1844 	.db #0x40	; 64
      0009C4 41                    1845 	.db #0x41	; 65	'A'
      0009C5 3F                    1846 	.db #0x3f	; 63
      0009C6 01                    1847 	.db #0x01	; 1
      0009C7 7F                    1848 	.db #0x7f	; 127
      0009C8 08                    1849 	.db #0x08	; 8
      0009C9 14                    1850 	.db #0x14	; 20
      0009CA 22                    1851 	.db #0x22	; 34
      0009CB 41                    1852 	.db #0x41	; 65	'A'
      0009CC 7F                    1853 	.db #0x7f	; 127
      0009CD 40                    1854 	.db #0x40	; 64
      0009CE 40                    1855 	.db #0x40	; 64
      0009CF 40                    1856 	.db #0x40	; 64
      0009D0 40                    1857 	.db #0x40	; 64
      0009D1 7F                    1858 	.db #0x7f	; 127
      0009D2 02                    1859 	.db #0x02	; 2
      0009D3 0C                    1860 	.db #0x0c	; 12
      0009D4 02                    1861 	.db #0x02	; 2
      0009D5 7F                    1862 	.db #0x7f	; 127
      0009D6 7F                    1863 	.db #0x7f	; 127
      0009D7 04                    1864 	.db #0x04	; 4
      0009D8 08                    1865 	.db #0x08	; 8
      0009D9 10                    1866 	.db #0x10	; 16
      0009DA 7F                    1867 	.db #0x7f	; 127
      0009DB 3E                    1868 	.db #0x3e	; 62
      0009DC 41                    1869 	.db #0x41	; 65	'A'
      0009DD 41                    1870 	.db #0x41	; 65	'A'
      0009DE 41                    1871 	.db #0x41	; 65	'A'
      0009DF 3E                    1872 	.db #0x3e	; 62
      0009E0 7F                    1873 	.db #0x7f	; 127
      0009E1 09                    1874 	.db #0x09	; 9
      0009E2 09                    1875 	.db #0x09	; 9
      0009E3 09                    1876 	.db #0x09	; 9
      0009E4 06                    1877 	.db #0x06	; 6
      0009E5 3E                    1878 	.db #0x3e	; 62
      0009E6 41                    1879 	.db #0x41	; 65	'A'
      0009E7 51                    1880 	.db #0x51	; 81	'Q'
      0009E8 21                    1881 	.db #0x21	; 33
      0009E9 5E                    1882 	.db #0x5e	; 94
      0009EA 7F                    1883 	.db #0x7f	; 127
      0009EB 09                    1884 	.db #0x09	; 9
      0009EC 19                    1885 	.db #0x19	; 25
      0009ED 29                    1886 	.db #0x29	; 41
      0009EE 46                    1887 	.db #0x46	; 70	'F'
      0009EF 46                    1888 	.db #0x46	; 70	'F'
      0009F0 49                    1889 	.db #0x49	; 73	'I'
      0009F1 49                    1890 	.db #0x49	; 73	'I'
      0009F2 49                    1891 	.db #0x49	; 73	'I'
      0009F3 31                    1892 	.db #0x31	; 49	'1'
      0009F4 01                    1893 	.db #0x01	; 1
      0009F5 01                    1894 	.db #0x01	; 1
      0009F6 7F                    1895 	.db #0x7f	; 127
      0009F7 01                    1896 	.db #0x01	; 1
      0009F8 01                    1897 	.db #0x01	; 1
      0009F9 3F                    1898 	.db #0x3f	; 63
      0009FA 40                    1899 	.db #0x40	; 64
      0009FB 40                    1900 	.db #0x40	; 64
      0009FC 40                    1901 	.db #0x40	; 64
      0009FD 3F                    1902 	.db #0x3f	; 63
      0009FE 1F                    1903 	.db #0x1f	; 31
      0009FF 20                    1904 	.db #0x20	; 32
      000A00 40                    1905 	.db #0x40	; 64
      000A01 20                    1906 	.db #0x20	; 32
      000A02 1F                    1907 	.db #0x1f	; 31
      000A03 3F                    1908 	.db #0x3f	; 63
      000A04 40                    1909 	.db #0x40	; 64
      000A05 38                    1910 	.db #0x38	; 56	'8'
      000A06 40                    1911 	.db #0x40	; 64
      000A07 3F                    1912 	.db #0x3f	; 63
      000A08 63                    1913 	.db #0x63	; 99	'c'
      000A09 14                    1914 	.db #0x14	; 20
      000A0A 08                    1915 	.db #0x08	; 8
      000A0B 14                    1916 	.db #0x14	; 20
      000A0C 63                    1917 	.db #0x63	; 99	'c'
      000A0D 07                    1918 	.db #0x07	; 7
      000A0E 08                    1919 	.db #0x08	; 8
      000A0F 70                    1920 	.db #0x70	; 112	'p'
      000A10 08                    1921 	.db #0x08	; 8
      000A11 07                    1922 	.db #0x07	; 7
      000A12 61                    1923 	.db #0x61	; 97	'a'
      000A13 51                    1924 	.db #0x51	; 81	'Q'
      000A14 49                    1925 	.db #0x49	; 73	'I'
      000A15 45                    1926 	.db #0x45	; 69	'E'
      000A16 43                    1927 	.db #0x43	; 67	'C'
      000A17 00                    1928 	.db #0x00	; 0
      000A18 7F                    1929 	.db #0x7f	; 127
      000A19 41                    1930 	.db #0x41	; 65	'A'
      000A1A 41                    1931 	.db #0x41	; 65	'A'
      000A1B 00                    1932 	.db #0x00	; 0
      000A1C 02                    1933 	.db #0x02	; 2
      000A1D 04                    1934 	.db #0x04	; 4
      000A1E 08                    1935 	.db #0x08	; 8
      000A1F 10                    1936 	.db #0x10	; 16
      000A20 20                    1937 	.db #0x20	; 32
      000A21 00                    1938 	.db #0x00	; 0
      000A22 41                    1939 	.db #0x41	; 65	'A'
      000A23 41                    1940 	.db #0x41	; 65	'A'
      000A24 7F                    1941 	.db #0x7f	; 127
      000A25 00                    1942 	.db #0x00	; 0
      000A26 04                    1943 	.db #0x04	; 4
      000A27 02                    1944 	.db #0x02	; 2
      000A28 01                    1945 	.db #0x01	; 1
      000A29 02                    1946 	.db #0x02	; 2
      000A2A 04                    1947 	.db #0x04	; 4
      000A2B 40                    1948 	.db #0x40	; 64
      000A2C 40                    1949 	.db #0x40	; 64
      000A2D 40                    1950 	.db #0x40	; 64
      000A2E 40                    1951 	.db #0x40	; 64
      000A2F 40                    1952 	.db #0x40	; 64
      000A30 00                    1953 	.db #0x00	; 0
      000A31 01                    1954 	.db #0x01	; 1
      000A32 02                    1955 	.db #0x02	; 2
      000A33 04                    1956 	.db #0x04	; 4
      000A34 00                    1957 	.db #0x00	; 0
      000A35 20                    1958 	.db #0x20	; 32
      000A36 54                    1959 	.db #0x54	; 84	'T'
      000A37 54                    1960 	.db #0x54	; 84	'T'
      000A38 54                    1961 	.db #0x54	; 84	'T'
      000A39 78                    1962 	.db #0x78	; 120	'x'
      000A3A 7F                    1963 	.db #0x7f	; 127
      000A3B 48                    1964 	.db #0x48	; 72	'H'
      000A3C 44                    1965 	.db #0x44	; 68	'D'
      000A3D 44                    1966 	.db #0x44	; 68	'D'
      000A3E 38                    1967 	.db #0x38	; 56	'8'
      000A3F 38                    1968 	.db #0x38	; 56	'8'
      000A40 44                    1969 	.db #0x44	; 68	'D'
      000A41 44                    1970 	.db #0x44	; 68	'D'
      000A42 44                    1971 	.db #0x44	; 68	'D'
      000A43 00                    1972 	.db #0x00	; 0
      000A44 38                    1973 	.db #0x38	; 56	'8'
      000A45 44                    1974 	.db #0x44	; 68	'D'
      000A46 44                    1975 	.db #0x44	; 68	'D'
      000A47 48                    1976 	.db #0x48	; 72	'H'
      000A48 7F                    1977 	.db #0x7f	; 127
      000A49 38                    1978 	.db #0x38	; 56	'8'
      000A4A 54                    1979 	.db #0x54	; 84	'T'
      000A4B 54                    1980 	.db #0x54	; 84	'T'
      000A4C 54                    1981 	.db #0x54	; 84	'T'
      000A4D 18                    1982 	.db #0x18	; 24
      000A4E 08                    1983 	.db #0x08	; 8
      000A4F 7E                    1984 	.db #0x7e	; 126
      000A50 09                    1985 	.db #0x09	; 9
      000A51 01                    1986 	.db #0x01	; 1
      000A52 02                    1987 	.db #0x02	; 2
      000A53 0C                    1988 	.db #0x0c	; 12
      000A54 52                    1989 	.db #0x52	; 82	'R'
      000A55 52                    1990 	.db #0x52	; 82	'R'
      000A56 52                    1991 	.db #0x52	; 82	'R'
      000A57 3E                    1992 	.db #0x3e	; 62
      000A58 7F                    1993 	.db #0x7f	; 127
      000A59 08                    1994 	.db #0x08	; 8
      000A5A 04                    1995 	.db #0x04	; 4
      000A5B 04                    1996 	.db #0x04	; 4
      000A5C 78                    1997 	.db #0x78	; 120	'x'
      000A5D 00                    1998 	.db #0x00	; 0
      000A5E 44                    1999 	.db #0x44	; 68	'D'
      000A5F 7D                    2000 	.db #0x7d	; 125
      000A60 40                    2001 	.db #0x40	; 64
      000A61 00                    2002 	.db #0x00	; 0
      000A62 20                    2003 	.db #0x20	; 32
      000A63 40                    2004 	.db #0x40	; 64
      000A64 44                    2005 	.db #0x44	; 68	'D'
      000A65 3D                    2006 	.db #0x3d	; 61
      000A66 00                    2007 	.db #0x00	; 0
      000A67 7F                    2008 	.db #0x7f	; 127
      000A68 10                    2009 	.db #0x10	; 16
      000A69 28                    2010 	.db #0x28	; 40
      000A6A 44                    2011 	.db #0x44	; 68	'D'
      000A6B 00                    2012 	.db #0x00	; 0
      000A6C 00                    2013 	.db #0x00	; 0
      000A6D 41                    2014 	.db #0x41	; 65	'A'
      000A6E 7F                    2015 	.db #0x7f	; 127
      000A6F 40                    2016 	.db #0x40	; 64
      000A70 00                    2017 	.db #0x00	; 0
      000A71 7C                    2018 	.db #0x7c	; 124
      000A72 04                    2019 	.db #0x04	; 4
      000A73 18                    2020 	.db #0x18	; 24
      000A74 04                    2021 	.db #0x04	; 4
      000A75 78                    2022 	.db #0x78	; 120	'x'
      000A76 7C                    2023 	.db #0x7c	; 124
      000A77 08                    2024 	.db #0x08	; 8
      000A78 04                    2025 	.db #0x04	; 4
      000A79 04                    2026 	.db #0x04	; 4
      000A7A 78                    2027 	.db #0x78	; 120	'x'
      000A7B 38                    2028 	.db #0x38	; 56	'8'
      000A7C 44                    2029 	.db #0x44	; 68	'D'
      000A7D 44                    2030 	.db #0x44	; 68	'D'
      000A7E 44                    2031 	.db #0x44	; 68	'D'
      000A7F 38                    2032 	.db #0x38	; 56	'8'
      000A80 7C                    2033 	.db #0x7c	; 124
      000A81 14                    2034 	.db #0x14	; 20
      000A82 14                    2035 	.db #0x14	; 20
      000A83 14                    2036 	.db #0x14	; 20
      000A84 08                    2037 	.db #0x08	; 8
      000A85 08                    2038 	.db #0x08	; 8
      000A86 14                    2039 	.db #0x14	; 20
      000A87 14                    2040 	.db #0x14	; 20
      000A88 18                    2041 	.db #0x18	; 24
      000A89 7C                    2042 	.db #0x7c	; 124
      000A8A 7C                    2043 	.db #0x7c	; 124
      000A8B 08                    2044 	.db #0x08	; 8
      000A8C 04                    2045 	.db #0x04	; 4
      000A8D 04                    2046 	.db #0x04	; 4
      000A8E 08                    2047 	.db #0x08	; 8
      000A8F 48                    2048 	.db #0x48	; 72	'H'
      000A90 54                    2049 	.db #0x54	; 84	'T'
      000A91 54                    2050 	.db #0x54	; 84	'T'
      000A92 54                    2051 	.db #0x54	; 84	'T'
      000A93 20                    2052 	.db #0x20	; 32
      000A94 04                    2053 	.db #0x04	; 4
      000A95 3F                    2054 	.db #0x3f	; 63
      000A96 44                    2055 	.db #0x44	; 68	'D'
      000A97 40                    2056 	.db #0x40	; 64
      000A98 20                    2057 	.db #0x20	; 32
      000A99 3C                    2058 	.db #0x3c	; 60
      000A9A 40                    2059 	.db #0x40	; 64
      000A9B 40                    2060 	.db #0x40	; 64
      000A9C 20                    2061 	.db #0x20	; 32
      000A9D 7C                    2062 	.db #0x7c	; 124
      000A9E 1C                    2063 	.db #0x1c	; 28
      000A9F 20                    2064 	.db #0x20	; 32
      000AA0 40                    2065 	.db #0x40	; 64
      000AA1 20                    2066 	.db #0x20	; 32
      000AA2 1C                    2067 	.db #0x1c	; 28
      000AA3 3C                    2068 	.db #0x3c	; 60
      000AA4 40                    2069 	.db #0x40	; 64
      000AA5 30                    2070 	.db #0x30	; 48	'0'
      000AA6 40                    2071 	.db #0x40	; 64
      000AA7 3C                    2072 	.db #0x3c	; 60
      000AA8 44                    2073 	.db #0x44	; 68	'D'
      000AA9 28                    2074 	.db #0x28	; 40
      000AAA 10                    2075 	.db #0x10	; 16
      000AAB 28                    2076 	.db #0x28	; 40
      000AAC 44                    2077 	.db #0x44	; 68	'D'
      000AAD 0C                    2078 	.db #0x0c	; 12
      000AAE 50                    2079 	.db #0x50	; 80	'P'
      000AAF 50                    2080 	.db #0x50	; 80	'P'
      000AB0 50                    2081 	.db #0x50	; 80	'P'
      000AB1 3C                    2082 	.db #0x3c	; 60
      000AB2 44                    2083 	.db #0x44	; 68	'D'
      000AB3 64                    2084 	.db #0x64	; 100	'd'
      000AB4 54                    2085 	.db #0x54	; 84	'T'
      000AB5 4C                    2086 	.db #0x4c	; 76	'L'
      000AB6 44                    2087 	.db #0x44	; 68	'D'
      000AB7 00                    2088 	.db #0x00	; 0
      000AB8 08                    2089 	.db #0x08	; 8
      000AB9 36                    2090 	.db #0x36	; 54	'6'
      000ABA 41                    2091 	.db #0x41	; 65	'A'
      000ABB 00                    2092 	.db #0x00	; 0
      000ABC 00                    2093 	.db #0x00	; 0
      000ABD 00                    2094 	.db #0x00	; 0
      000ABE 7F                    2095 	.db #0x7f	; 127
      000ABF 00                    2096 	.db #0x00	; 0
      000AC0 00                    2097 	.db #0x00	; 0
      000AC1 00                    2098 	.db #0x00	; 0
      000AC2 41                    2099 	.db #0x41	; 65	'A'
      000AC3 36                    2100 	.db #0x36	; 54	'6'
      000AC4 08                    2101 	.db #0x08	; 8
      000AC5 00                    2102 	.db #0x00	; 0
      000AC6 08                    2103 	.db #0x08	; 8
      000AC7 04                    2104 	.db #0x04	; 4
      000AC8 08                    2105 	.db #0x08	; 8
      000AC9 10                    2106 	.db #0x10	; 16
      000ACA 08                    2107 	.db #0x08	; 8
      000ACB 06                    2108 	.db #0x06	; 6
      000ACC 09                    2109 	.db #0x09	; 9
      000ACD 09                    2110 	.db #0x09	; 9
      000ACE 06                    2111 	.db #0x06	; 6
      000ACF 00                    2112 	.db #0x00	; 0
      000AD0 7C                    2113 	.db #0x7c	; 124
      000AD1 12                    2114 	.db #0x12	; 18
      000AD2 11                    2115 	.db #0x11	; 17
      000AD3 12                    2116 	.db #0x12	; 18
      000AD4 7C                    2117 	.db #0x7c	; 124
      000AD5 7F                    2118 	.db #0x7f	; 127
      000AD6 49                    2119 	.db #0x49	; 73	'I'
      000AD7 49                    2120 	.db #0x49	; 73	'I'
      000AD8 49                    2121 	.db #0x49	; 73	'I'
      000AD9 31                    2122 	.db #0x31	; 49	'1'
      000ADA 7F                    2123 	.db #0x7f	; 127
      000ADB 49                    2124 	.db #0x49	; 73	'I'
      000ADC 49                    2125 	.db #0x49	; 73	'I'
      000ADD 49                    2126 	.db #0x49	; 73	'I'
      000ADE 36                    2127 	.db #0x36	; 54	'6'
      000ADF 7F                    2128 	.db #0x7f	; 127
      000AE0 01                    2129 	.db #0x01	; 1
      000AE1 01                    2130 	.db #0x01	; 1
      000AE2 01                    2131 	.db #0x01	; 1
      000AE3 01                    2132 	.db #0x01	; 1
      000AE4 60                    2133 	.db #0x60	; 96
      000AE5 3F                    2134 	.db #0x3f	; 63
      000AE6 21                    2135 	.db #0x21	; 33
      000AE7 3F                    2136 	.db #0x3f	; 63
      000AE8 60                    2137 	.db #0x60	; 96
      000AE9 7F                    2138 	.db #0x7f	; 127
      000AEA 49                    2139 	.db #0x49	; 73	'I'
      000AEB 49                    2140 	.db #0x49	; 73	'I'
      000AEC 49                    2141 	.db #0x49	; 73	'I'
      000AED 41                    2142 	.db #0x41	; 65	'A'
      000AEE 77                    2143 	.db #0x77	; 119	'w'
      000AEF 08                    2144 	.db #0x08	; 8
      000AF0 7F                    2145 	.db #0x7f	; 127
      000AF1 08                    2146 	.db #0x08	; 8
      000AF2 77                    2147 	.db #0x77	; 119	'w'
      000AF3 22                    2148 	.db #0x22	; 34
      000AF4 41                    2149 	.db #0x41	; 65	'A'
      000AF5 49                    2150 	.db #0x49	; 73	'I'
      000AF6 49                    2151 	.db #0x49	; 73	'I'
      000AF7 36                    2152 	.db #0x36	; 54	'6'
      000AF8 7F                    2153 	.db #0x7f	; 127
      000AF9 10                    2154 	.db #0x10	; 16
      000AFA 08                    2155 	.db #0x08	; 8
      000AFB 04                    2156 	.db #0x04	; 4
      000AFC 7F                    2157 	.db #0x7f	; 127
      000AFD 7E                    2158 	.db #0x7e	; 126
      000AFE 10                    2159 	.db #0x10	; 16
      000AFF 09                    2160 	.db #0x09	; 9
      000B00 04                    2161 	.db #0x04	; 4
      000B01 7E                    2162 	.db #0x7e	; 126
      000B02 7F                    2163 	.db #0x7f	; 127
      000B03 08                    2164 	.db #0x08	; 8
      000B04 14                    2165 	.db #0x14	; 20
      000B05 22                    2166 	.db #0x22	; 34
      000B06 41                    2167 	.db #0x41	; 65	'A'
      000B07 40                    2168 	.db #0x40	; 64
      000B08 3E                    2169 	.db #0x3e	; 62
      000B09 01                    2170 	.db #0x01	; 1
      000B0A 01                    2171 	.db #0x01	; 1
      000B0B 7F                    2172 	.db #0x7f	; 127
      000B0C 7F                    2173 	.db #0x7f	; 127
      000B0D 02                    2174 	.db #0x02	; 2
      000B0E 0C                    2175 	.db #0x0c	; 12
      000B0F 02                    2176 	.db #0x02	; 2
      000B10 7F                    2177 	.db #0x7f	; 127
      000B11 7F                    2178 	.db #0x7f	; 127
      000B12 08                    2179 	.db #0x08	; 8
      000B13 08                    2180 	.db #0x08	; 8
      000B14 08                    2181 	.db #0x08	; 8
      000B15 7F                    2182 	.db #0x7f	; 127
      000B16 3E                    2183 	.db #0x3e	; 62
      000B17 41                    2184 	.db #0x41	; 65	'A'
      000B18 41                    2185 	.db #0x41	; 65	'A'
      000B19 41                    2186 	.db #0x41	; 65	'A'
      000B1A 3E                    2187 	.db #0x3e	; 62
      000B1B 7F                    2188 	.db #0x7f	; 127
      000B1C 01                    2189 	.db #0x01	; 1
      000B1D 01                    2190 	.db #0x01	; 1
      000B1E 01                    2191 	.db #0x01	; 1
      000B1F 7F                    2192 	.db #0x7f	; 127
      000B20 7F                    2193 	.db #0x7f	; 127
      000B21 09                    2194 	.db #0x09	; 9
      000B22 09                    2195 	.db #0x09	; 9
      000B23 09                    2196 	.db #0x09	; 9
      000B24 06                    2197 	.db #0x06	; 6
      000B25 3E                    2198 	.db #0x3e	; 62
      000B26 41                    2199 	.db #0x41	; 65	'A'
      000B27 41                    2200 	.db #0x41	; 65	'A'
      000B28 41                    2201 	.db #0x41	; 65	'A'
      000B29 22                    2202 	.db #0x22	; 34
      000B2A 01                    2203 	.db #0x01	; 1
      000B2B 01                    2204 	.db #0x01	; 1
      000B2C 7F                    2205 	.db #0x7f	; 127
      000B2D 01                    2206 	.db #0x01	; 1
      000B2E 01                    2207 	.db #0x01	; 1
      000B2F 07                    2208 	.db #0x07	; 7
      000B30 48                    2209 	.db #0x48	; 72	'H'
      000B31 48                    2210 	.db #0x48	; 72	'H'
      000B32 48                    2211 	.db #0x48	; 72	'H'
      000B33 3F                    2212 	.db #0x3f	; 63
      000B34 0E                    2213 	.db #0x0e	; 14
      000B35 11                    2214 	.db #0x11	; 17
      000B36 7F                    2215 	.db #0x7f	; 127
      000B37 11                    2216 	.db #0x11	; 17
      000B38 0E                    2217 	.db #0x0e	; 14
      000B39 63                    2218 	.db #0x63	; 99	'c'
      000B3A 14                    2219 	.db #0x14	; 20
      000B3B 08                    2220 	.db #0x08	; 8
      000B3C 14                    2221 	.db #0x14	; 20
      000B3D 63                    2222 	.db #0x63	; 99	'c'
      000B3E 3F                    2223 	.db #0x3f	; 63
      000B3F 20                    2224 	.db #0x20	; 32
      000B40 20                    2225 	.db #0x20	; 32
      000B41 3F                    2226 	.db #0x3f	; 63
      000B42 60                    2227 	.db #0x60	; 96
      000B43 07                    2228 	.db #0x07	; 7
      000B44 08                    2229 	.db #0x08	; 8
      000B45 08                    2230 	.db #0x08	; 8
      000B46 08                    2231 	.db #0x08	; 8
      000B47 7F                    2232 	.db #0x7f	; 127
      000B48 7F                    2233 	.db #0x7f	; 127
      000B49 40                    2234 	.db #0x40	; 64
      000B4A 7E                    2235 	.db #0x7e	; 126
      000B4B 40                    2236 	.db #0x40	; 64
      000B4C 7F                    2237 	.db #0x7f	; 127
      000B4D 3F                    2238 	.db #0x3f	; 63
      000B4E 20                    2239 	.db #0x20	; 32
      000B4F 3F                    2240 	.db #0x3f	; 63
      000B50 20                    2241 	.db #0x20	; 32
      000B51 7F                    2242 	.db #0x7f	; 127
      000B52 01                    2243 	.db #0x01	; 1
      000B53 7F                    2244 	.db #0x7f	; 127
      000B54 48                    2245 	.db #0x48	; 72	'H'
      000B55 48                    2246 	.db #0x48	; 72	'H'
      000B56 30                    2247 	.db #0x30	; 48	'0'
      000B57 7F                    2248 	.db #0x7f	; 127
      000B58 48                    2249 	.db #0x48	; 72	'H'
      000B59 30                    2250 	.db #0x30	; 48	'0'
      000B5A 00                    2251 	.db #0x00	; 0
      000B5B 7F                    2252 	.db #0x7f	; 127
      000B5C 00                    2253 	.db #0x00	; 0
      000B5D 7F                    2254 	.db #0x7f	; 127
      000B5E 48                    2255 	.db #0x48	; 72	'H'
      000B5F 48                    2256 	.db #0x48	; 72	'H'
      000B60 30                    2257 	.db #0x30	; 48	'0'
      000B61 22                    2258 	.db #0x22	; 34
      000B62 41                    2259 	.db #0x41	; 65	'A'
      000B63 49                    2260 	.db #0x49	; 73	'I'
      000B64 49                    2261 	.db #0x49	; 73	'I'
      000B65 3E                    2262 	.db #0x3e	; 62
      000B66 7F                    2263 	.db #0x7f	; 127
      000B67 08                    2264 	.db #0x08	; 8
      000B68 3E                    2265 	.db #0x3e	; 62
      000B69 41                    2266 	.db #0x41	; 65	'A'
      000B6A 3E                    2267 	.db #0x3e	; 62
      000B6B 46                    2268 	.db #0x46	; 70	'F'
      000B6C 29                    2269 	.db #0x29	; 41
      000B6D 19                    2270 	.db #0x19	; 25
      000B6E 09                    2271 	.db #0x09	; 9
      000B6F 7F                    2272 	.db #0x7f	; 127
      000B70 20                    2273 	.db #0x20	; 32
      000B71 54                    2274 	.db #0x54	; 84	'T'
      000B72 54                    2275 	.db #0x54	; 84	'T'
      000B73 54                    2276 	.db #0x54	; 84	'T'
      000B74 78                    2277 	.db #0x78	; 120	'x'
      000B75 3C                    2278 	.db #0x3c	; 60
      000B76 4A                    2279 	.db #0x4a	; 74	'J'
      000B77 4A                    2280 	.db #0x4a	; 74	'J'
      000B78 4A                    2281 	.db #0x4a	; 74	'J'
      000B79 31                    2282 	.db #0x31	; 49	'1'
      000B7A 7C                    2283 	.db #0x7c	; 124
      000B7B 54                    2284 	.db #0x54	; 84	'T'
      000B7C 54                    2285 	.db #0x54	; 84	'T'
      000B7D 28                    2286 	.db #0x28	; 40
      000B7E 00                    2287 	.db #0x00	; 0
      000B7F 7C                    2288 	.db #0x7c	; 124
      000B80 04                    2289 	.db #0x04	; 4
      000B81 04                    2290 	.db #0x04	; 4
      000B82 0C                    2291 	.db #0x0c	; 12
      000B83 00                    2292 	.db #0x00	; 0
      000B84 60                    2293 	.db #0x60	; 96
      000B85 3C                    2294 	.db #0x3c	; 60
      000B86 24                    2295 	.db #0x24	; 36
      000B87 3C                    2296 	.db #0x3c	; 60
      000B88 60                    2297 	.db #0x60	; 96
      000B89 38                    2298 	.db #0x38	; 56	'8'
      000B8A 54                    2299 	.db #0x54	; 84	'T'
      000B8B 54                    2300 	.db #0x54	; 84	'T'
      000B8C 54                    2301 	.db #0x54	; 84	'T'
      000B8D 18                    2302 	.db #0x18	; 24
      000B8E 6C                    2303 	.db #0x6c	; 108	'l'
      000B8F 10                    2304 	.db #0x10	; 16
      000B90 7C                    2305 	.db #0x7c	; 124
      000B91 10                    2306 	.db #0x10	; 16
      000B92 6C                    2307 	.db #0x6c	; 108	'l'
      000B93 00                    2308 	.db #0x00	; 0
      000B94 44                    2309 	.db #0x44	; 68	'D'
      000B95 54                    2310 	.db #0x54	; 84	'T'
      000B96 54                    2311 	.db #0x54	; 84	'T'
      000B97 28                    2312 	.db #0x28	; 40
      000B98 7C                    2313 	.db #0x7c	; 124
      000B99 20                    2314 	.db #0x20	; 32
      000B9A 10                    2315 	.db #0x10	; 16
      000B9B 08                    2316 	.db #0x08	; 8
      000B9C 7C                    2317 	.db #0x7c	; 124
      000B9D 7C                    2318 	.db #0x7c	; 124
      000B9E 21                    2319 	.db #0x21	; 33
      000B9F 12                    2320 	.db #0x12	; 18
      000BA0 09                    2321 	.db #0x09	; 9
      000BA1 7C                    2322 	.db #0x7c	; 124
      000BA2 7C                    2323 	.db #0x7c	; 124
      000BA3 10                    2324 	.db #0x10	; 16
      000BA4 28                    2325 	.db #0x28	; 40
      000BA5 44                    2326 	.db #0x44	; 68	'D'
      000BA6 00                    2327 	.db #0x00	; 0
      000BA7 40                    2328 	.db #0x40	; 64
      000BA8 38                    2329 	.db #0x38	; 56	'8'
      000BA9 04                    2330 	.db #0x04	; 4
      000BAA 04                    2331 	.db #0x04	; 4
      000BAB 7C                    2332 	.db #0x7c	; 124
      000BAC 7C                    2333 	.db #0x7c	; 124
      000BAD 08                    2334 	.db #0x08	; 8
      000BAE 10                    2335 	.db #0x10	; 16
      000BAF 08                    2336 	.db #0x08	; 8
      000BB0 7C                    2337 	.db #0x7c	; 124
      000BB1 7C                    2338 	.db #0x7c	; 124
      000BB2 10                    2339 	.db #0x10	; 16
      000BB3 10                    2340 	.db #0x10	; 16
      000BB4 10                    2341 	.db #0x10	; 16
      000BB5 7C                    2342 	.db #0x7c	; 124
      000BB6 38                    2343 	.db #0x38	; 56	'8'
      000BB7 44                    2344 	.db #0x44	; 68	'D'
      000BB8 44                    2345 	.db #0x44	; 68	'D'
      000BB9 44                    2346 	.db #0x44	; 68	'D'
      000BBA 38                    2347 	.db #0x38	; 56	'8'
      000BBB 7C                    2348 	.db #0x7c	; 124
      000BBC 04                    2349 	.db #0x04	; 4
      000BBD 04                    2350 	.db #0x04	; 4
      000BBE 04                    2351 	.db #0x04	; 4
      000BBF 7C                    2352 	.db #0x7c	; 124
      000BC0 7C                    2353 	.db #0x7c	; 124
      000BC1 14                    2354 	.db #0x14	; 20
      000BC2 14                    2355 	.db #0x14	; 20
      000BC3 14                    2356 	.db #0x14	; 20
      000BC4 08                    2357 	.db #0x08	; 8
      000BC5 38                    2358 	.db #0x38	; 56	'8'
      000BC6 44                    2359 	.db #0x44	; 68	'D'
      000BC7 44                    2360 	.db #0x44	; 68	'D'
      000BC8 44                    2361 	.db #0x44	; 68	'D'
      000BC9 00                    2362 	.db #0x00	; 0
      000BCA 04                    2363 	.db #0x04	; 4
      000BCB 04                    2364 	.db #0x04	; 4
      000BCC 7C                    2365 	.db #0x7c	; 124
      000BCD 04                    2366 	.db #0x04	; 4
      000BCE 04                    2367 	.db #0x04	; 4
      000BCF 0C                    2368 	.db #0x0c	; 12
      000BD0 50                    2369 	.db #0x50	; 80	'P'
      000BD1 50                    2370 	.db #0x50	; 80	'P'
      000BD2 50                    2371 	.db #0x50	; 80	'P'
      000BD3 3C                    2372 	.db #0x3c	; 60
      000BD4 08                    2373 	.db #0x08	; 8
      000BD5 14                    2374 	.db #0x14	; 20
      000BD6 7C                    2375 	.db #0x7c	; 124
      000BD7 14                    2376 	.db #0x14	; 20
      000BD8 08                    2377 	.db #0x08	; 8
      000BD9 44                    2378 	.db #0x44	; 68	'D'
      000BDA 28                    2379 	.db #0x28	; 40
      000BDB 10                    2380 	.db #0x10	; 16
      000BDC 28                    2381 	.db #0x28	; 40
      000BDD 44                    2382 	.db #0x44	; 68	'D'
      000BDE 3C                    2383 	.db #0x3c	; 60
      000BDF 20                    2384 	.db #0x20	; 32
      000BE0 20                    2385 	.db #0x20	; 32
      000BE1 3C                    2386 	.db #0x3c	; 60
      000BE2 60                    2387 	.db #0x60	; 96
      000BE3 0C                    2388 	.db #0x0c	; 12
      000BE4 10                    2389 	.db #0x10	; 16
      000BE5 10                    2390 	.db #0x10	; 16
      000BE6 10                    2391 	.db #0x10	; 16
      000BE7 7C                    2392 	.db #0x7c	; 124
      000BE8 7C                    2393 	.db #0x7c	; 124
      000BE9 40                    2394 	.db #0x40	; 64
      000BEA 7C                    2395 	.db #0x7c	; 124
      000BEB 40                    2396 	.db #0x40	; 64
      000BEC 7C                    2397 	.db #0x7c	; 124
      000BED 3C                    2398 	.db #0x3c	; 60
      000BEE 20                    2399 	.db #0x20	; 32
      000BEF 3C                    2400 	.db #0x3c	; 60
      000BF0 20                    2401 	.db #0x20	; 32
      000BF1 7C                    2402 	.db #0x7c	; 124
      000BF2 04                    2403 	.db #0x04	; 4
      000BF3 7C                    2404 	.db #0x7c	; 124
      000BF4 50                    2405 	.db #0x50	; 80	'P'
      000BF5 50                    2406 	.db #0x50	; 80	'P'
      000BF6 20                    2407 	.db #0x20	; 32
      000BF7 7C                    2408 	.db #0x7c	; 124
      000BF8 50                    2409 	.db #0x50	; 80	'P'
      000BF9 20                    2410 	.db #0x20	; 32
      000BFA 00                    2411 	.db #0x00	; 0
      000BFB 7C                    2412 	.db #0x7c	; 124
      000BFC 00                    2413 	.db #0x00	; 0
      000BFD 7C                    2414 	.db #0x7c	; 124
      000BFE 50                    2415 	.db #0x50	; 80	'P'
      000BFF 50                    2416 	.db #0x50	; 80	'P'
      000C00 20                    2417 	.db #0x20	; 32
      000C01 28                    2418 	.db #0x28	; 40
      000C02 44                    2419 	.db #0x44	; 68	'D'
      000C03 54                    2420 	.db #0x54	; 84	'T'
      000C04 54                    2421 	.db #0x54	; 84	'T'
      000C05 38                    2422 	.db #0x38	; 56	'8'
      000C06 7C                    2423 	.db #0x7c	; 124
      000C07 10                    2424 	.db #0x10	; 16
      000C08 38                    2425 	.db #0x38	; 56	'8'
      000C09 44                    2426 	.db #0x44	; 68	'D'
      000C0A 38                    2427 	.db #0x38	; 56	'8'
      000C0B 48                    2428 	.db #0x48	; 72	'H'
      000C0C 54                    2429 	.db #0x54	; 84	'T'
      000C0D 34                    2430 	.db #0x34	; 52	'4'
      000C0E 14                    2431 	.db #0x14	; 20
      000C0F 7C                    2432 	.db #0x7c	; 124
      000C10                       2433 _BigNumbers:
      000C10 FC                    2434 	.db #0xfc	; 252
      000C11 7A                    2435 	.db #0x7a	; 122	'z'
      000C12 06                    2436 	.db #0x06	; 6
      000C13 06                    2437 	.db #0x06	; 6
      000C14 06                    2438 	.db #0x06	; 6
      000C15 06                    2439 	.db #0x06	; 6
      000C16 06                    2440 	.db #0x06	; 6
      000C17 06                    2441 	.db #0x06	; 6
      000C18 7A                    2442 	.db #0x7a	; 122	'z'
      000C19 FC                    2443 	.db #0xfc	; 252
      000C1A 7E                    2444 	.db #0x7e	; 126
      000C1B BC                    2445 	.db #0xbc	; 188
      000C1C C0                    2446 	.db #0xc0	; 192
      000C1D C0                    2447 	.db #0xc0	; 192
      000C1E C0                    2448 	.db #0xc0	; 192
      000C1F C0                    2449 	.db #0xc0	; 192
      000C20 C0                    2450 	.db #0xc0	; 192
      000C21 C0                    2451 	.db #0xc0	; 192
      000C22 BC                    2452 	.db #0xbc	; 188
      000C23 7E                    2453 	.db #0x7e	; 126
      000C24 00                    2454 	.db #0x00	; 0
      000C25 00                    2455 	.db #0x00	; 0
      000C26 00                    2456 	.db #0x00	; 0
      000C27 00                    2457 	.db #0x00	; 0
      000C28 00                    2458 	.db #0x00	; 0
      000C29 00                    2459 	.db #0x00	; 0
      000C2A 00                    2460 	.db #0x00	; 0
      000C2B 00                    2461 	.db #0x00	; 0
      000C2C 78                    2462 	.db #0x78	; 120	'x'
      000C2D FC                    2463 	.db #0xfc	; 252
      000C2E 00                    2464 	.db #0x00	; 0
      000C2F 00                    2465 	.db #0x00	; 0
      000C30 00                    2466 	.db #0x00	; 0
      000C31 00                    2467 	.db #0x00	; 0
      000C32 00                    2468 	.db #0x00	; 0
      000C33 00                    2469 	.db #0x00	; 0
      000C34 00                    2470 	.db #0x00	; 0
      000C35 00                    2471 	.db #0x00	; 0
      000C36 3C                    2472 	.db #0x3c	; 60
      000C37 7E                    2473 	.db #0x7e	; 126
      000C38 00                    2474 	.db #0x00	; 0
      000C39 02                    2475 	.db #0x02	; 2
      000C3A 86                    2476 	.db #0x86	; 134
      000C3B 86                    2477 	.db #0x86	; 134
      000C3C 86                    2478 	.db #0x86	; 134
      000C3D 86                    2479 	.db #0x86	; 134
      000C3E 86                    2480 	.db #0x86	; 134
      000C3F 86                    2481 	.db #0x86	; 134
      000C40 7A                    2482 	.db #0x7a	; 122	'z'
      000C41 FC                    2483 	.db #0xfc	; 252
      000C42 7E                    2484 	.db #0x7e	; 126
      000C43 BD                    2485 	.db #0xbd	; 189
      000C44 C3                    2486 	.db #0xc3	; 195
      000C45 C3                    2487 	.db #0xc3	; 195
      000C46 C3                    2488 	.db #0xc3	; 195
      000C47 C3                    2489 	.db #0xc3	; 195
      000C48 C3                    2490 	.db #0xc3	; 195
      000C49 C3                    2491 	.db #0xc3	; 195
      000C4A 81                    2492 	.db #0x81	; 129
      000C4B 00                    2493 	.db #0x00	; 0
      000C4C 00                    2494 	.db #0x00	; 0
      000C4D 02                    2495 	.db #0x02	; 2
      000C4E 86                    2496 	.db #0x86	; 134
      000C4F 86                    2497 	.db #0x86	; 134
      000C50 86                    2498 	.db #0x86	; 134
      000C51 86                    2499 	.db #0x86	; 134
      000C52 86                    2500 	.db #0x86	; 134
      000C53 86                    2501 	.db #0x86	; 134
      000C54 7A                    2502 	.db #0x7a	; 122	'z'
      000C55 FC                    2503 	.db #0xfc	; 252
      000C56 00                    2504 	.db #0x00	; 0
      000C57 81                    2505 	.db #0x81	; 129
      000C58 C3                    2506 	.db #0xc3	; 195
      000C59 C3                    2507 	.db #0xc3	; 195
      000C5A C3                    2508 	.db #0xc3	; 195
      000C5B C3                    2509 	.db #0xc3	; 195
      000C5C C3                    2510 	.db #0xc3	; 195
      000C5D C3                    2511 	.db #0xc3	; 195
      000C5E BD                    2512 	.db #0xbd	; 189
      000C5F 7E                    2513 	.db #0x7e	; 126
      000C60 FC                    2514 	.db #0xfc	; 252
      000C61 78                    2515 	.db #0x78	; 120	'x'
      000C62 80                    2516 	.db #0x80	; 128
      000C63 80                    2517 	.db #0x80	; 128
      000C64 80                    2518 	.db #0x80	; 128
      000C65 80                    2519 	.db #0x80	; 128
      000C66 80                    2520 	.db #0x80	; 128
      000C67 80                    2521 	.db #0x80	; 128
      000C68 78                    2522 	.db #0x78	; 120	'x'
      000C69 FC                    2523 	.db #0xfc	; 252
      000C6A 00                    2524 	.db #0x00	; 0
      000C6B 01                    2525 	.db #0x01	; 1
      000C6C 03                    2526 	.db #0x03	; 3
      000C6D 03                    2527 	.db #0x03	; 3
      000C6E 03                    2528 	.db #0x03	; 3
      000C6F 03                    2529 	.db #0x03	; 3
      000C70 03                    2530 	.db #0x03	; 3
      000C71 03                    2531 	.db #0x03	; 3
      000C72 3D                    2532 	.db #0x3d	; 61
      000C73 7E                    2533 	.db #0x7e	; 126
      000C74 FC                    2534 	.db #0xfc	; 252
      000C75 7A                    2535 	.db #0x7a	; 122	'z'
      000C76 86                    2536 	.db #0x86	; 134
      000C77 86                    2537 	.db #0x86	; 134
      000C78 86                    2538 	.db #0x86	; 134
      000C79 86                    2539 	.db #0x86	; 134
      000C7A 86                    2540 	.db #0x86	; 134
      000C7B 86                    2541 	.db #0x86	; 134
      000C7C 02                    2542 	.db #0x02	; 2
      000C7D 00                    2543 	.db #0x00	; 0
      000C7E 00                    2544 	.db #0x00	; 0
      000C7F 81                    2545 	.db #0x81	; 129
      000C80 C3                    2546 	.db #0xc3	; 195
      000C81 C3                    2547 	.db #0xc3	; 195
      000C82 C3                    2548 	.db #0xc3	; 195
      000C83 C3                    2549 	.db #0xc3	; 195
      000C84 C3                    2550 	.db #0xc3	; 195
      000C85 C3                    2551 	.db #0xc3	; 195
      000C86 BD                    2552 	.db #0xbd	; 189
      000C87 7E                    2553 	.db #0x7e	; 126
      000C88 FC                    2554 	.db #0xfc	; 252
      000C89 7A                    2555 	.db #0x7a	; 122	'z'
      000C8A 86                    2556 	.db #0x86	; 134
      000C8B 86                    2557 	.db #0x86	; 134
      000C8C 86                    2558 	.db #0x86	; 134
      000C8D 86                    2559 	.db #0x86	; 134
      000C8E 86                    2560 	.db #0x86	; 134
      000C8F 86                    2561 	.db #0x86	; 134
      000C90 02                    2562 	.db #0x02	; 2
      000C91 00                    2563 	.db #0x00	; 0
      000C92 7E                    2564 	.db #0x7e	; 126
      000C93 BD                    2565 	.db #0xbd	; 189
      000C94 C3                    2566 	.db #0xc3	; 195
      000C95 C3                    2567 	.db #0xc3	; 195
      000C96 C3                    2568 	.db #0xc3	; 195
      000C97 C3                    2569 	.db #0xc3	; 195
      000C98 C3                    2570 	.db #0xc3	; 195
      000C99 C3                    2571 	.db #0xc3	; 195
      000C9A BD                    2572 	.db #0xbd	; 189
      000C9B 7E                    2573 	.db #0x7e	; 126
      000C9C 00                    2574 	.db #0x00	; 0
      000C9D 02                    2575 	.db #0x02	; 2
      000C9E 06                    2576 	.db #0x06	; 6
      000C9F 06                    2577 	.db #0x06	; 6
      000CA0 06                    2578 	.db #0x06	; 6
      000CA1 06                    2579 	.db #0x06	; 6
      000CA2 06                    2580 	.db #0x06	; 6
      000CA3 06                    2581 	.db #0x06	; 6
      000CA4 7A                    2582 	.db #0x7a	; 122	'z'
      000CA5 FC                    2583 	.db #0xfc	; 252
      000CA6 00                    2584 	.db #0x00	; 0
      000CA7 00                    2585 	.db #0x00	; 0
      000CA8 00                    2586 	.db #0x00	; 0
      000CA9 00                    2587 	.db #0x00	; 0
      000CAA 00                    2588 	.db #0x00	; 0
      000CAB 00                    2589 	.db #0x00	; 0
      000CAC 00                    2590 	.db #0x00	; 0
      000CAD 00                    2591 	.db #0x00	; 0
      000CAE 3C                    2592 	.db #0x3c	; 60
      000CAF 7E                    2593 	.db #0x7e	; 126
      000CB0 FC                    2594 	.db #0xfc	; 252
      000CB1 7A                    2595 	.db #0x7a	; 122	'z'
      000CB2 86                    2596 	.db #0x86	; 134
      000CB3 86                    2597 	.db #0x86	; 134
      000CB4 86                    2598 	.db #0x86	; 134
      000CB5 86                    2599 	.db #0x86	; 134
      000CB6 86                    2600 	.db #0x86	; 134
      000CB7 86                    2601 	.db #0x86	; 134
      000CB8 7A                    2602 	.db #0x7a	; 122	'z'
      000CB9 FC                    2603 	.db #0xfc	; 252
      000CBA 7E                    2604 	.db #0x7e	; 126
      000CBB BD                    2605 	.db #0xbd	; 189
      000CBC C3                    2606 	.db #0xc3	; 195
      000CBD C3                    2607 	.db #0xc3	; 195
      000CBE C3                    2608 	.db #0xc3	; 195
      000CBF C3                    2609 	.db #0xc3	; 195
      000CC0 C3                    2610 	.db #0xc3	; 195
      000CC1 C3                    2611 	.db #0xc3	; 195
      000CC2 BD                    2612 	.db #0xbd	; 189
      000CC3 7E                    2613 	.db #0x7e	; 126
      000CC4 FC                    2614 	.db #0xfc	; 252
      000CC5 7A                    2615 	.db #0x7a	; 122	'z'
      000CC6 86                    2616 	.db #0x86	; 134
      000CC7 86                    2617 	.db #0x86	; 134
      000CC8 86                    2618 	.db #0x86	; 134
      000CC9 86                    2619 	.db #0x86	; 134
      000CCA 86                    2620 	.db #0x86	; 134
      000CCB 86                    2621 	.db #0x86	; 134
      000CCC 7A                    2622 	.db #0x7a	; 122	'z'
      000CCD FC                    2623 	.db #0xfc	; 252
      000CCE 00                    2624 	.db #0x00	; 0
      000CCF 81                    2625 	.db #0x81	; 129
      000CD0 C3                    2626 	.db #0xc3	; 195
      000CD1 C3                    2627 	.db #0xc3	; 195
      000CD2 C3                    2628 	.db #0xc3	; 195
      000CD3 C3                    2629 	.db #0xc3	; 195
      000CD4 C3                    2630 	.db #0xc3	; 195
      000CD5 C3                    2631 	.db #0xc3	; 195
      000CD6 BD                    2632 	.db #0xbd	; 189
      000CD7 7E                    2633 	.db #0x7e	; 126
      000CD8                       2634 _LargeNumbers:
      000CD8 00                    2635 	.db #0x00	; 0
      000CD9 FC                    2636 	.db #0xfc	; 252
      000CDA F8                    2637 	.db #0xf8	; 248
      000CDB F2                    2638 	.db #0xf2	; 242
      000CDC E6                    2639 	.db #0xe6	; 230
      000CDD CE                    2640 	.db #0xce	; 206
      000CDE 1E                    2641 	.db #0x1e	; 30
      000CDF 3E                    2642 	.db #0x3e	; 62
      000CE0 3E                    2643 	.db #0x3e	; 62
      000CE1 3E                    2644 	.db #0x3e	; 62
      000CE2 3E                    2645 	.db #0x3e	; 62
      000CE3 3E                    2646 	.db #0x3e	; 62
      000CE4 3E                    2647 	.db #0x3e	; 62
      000CE5 3E                    2648 	.db #0x3e	; 62
      000CE6 1E                    2649 	.db #0x1e	; 30
      000CE7 CE                    2650 	.db #0xce	; 206
      000CE8 E6                    2651 	.db #0xe6	; 230
      000CE9 F2                    2652 	.db #0xf2	; 242
      000CEA F8                    2653 	.db #0xf8	; 248
      000CEB FC                    2654 	.db #0xfc	; 252
      000CEC 00                    2655 	.db #0x00	; 0
      000CED FF                    2656 	.db #0xff	; 255
      000CEE 7F                    2657 	.db #0x7f	; 127
      000CEF 3F                    2658 	.db #0x3f	; 63
      000CF0 1F                    2659 	.db #0x1f	; 31
      000CF1 0F                    2660 	.db #0x0f	; 15
      000CF2 00                    2661 	.db #0x00	; 0
      000CF3 00                    2662 	.db #0x00	; 0
      000CF4 00                    2663 	.db #0x00	; 0
      000CF5 00                    2664 	.db #0x00	; 0
      000CF6 00                    2665 	.db #0x00	; 0
      000CF7 00                    2666 	.db #0x00	; 0
      000CF8 00                    2667 	.db #0x00	; 0
      000CF9 00                    2668 	.db #0x00	; 0
      000CFA 00                    2669 	.db #0x00	; 0
      000CFB 0F                    2670 	.db #0x0f	; 15
      000CFC 1F                    2671 	.db #0x1f	; 31
      000CFD 3F                    2672 	.db #0x3f	; 63
      000CFE 7F                    2673 	.db #0x7f	; 127
      000CFF FF                    2674 	.db #0xff	; 255
      000D00 00                    2675 	.db #0x00	; 0
      000D01 FE                    2676 	.db #0xfe	; 254
      000D02 FC                    2677 	.db #0xfc	; 252
      000D03 F8                    2678 	.db #0xf8	; 248
      000D04 F0                    2679 	.db #0xf0	; 240
      000D05 E0                    2680 	.db #0xe0	; 224
      000D06 00                    2681 	.db #0x00	; 0
      000D07 00                    2682 	.db #0x00	; 0
      000D08 00                    2683 	.db #0x00	; 0
      000D09 00                    2684 	.db #0x00	; 0
      000D0A 00                    2685 	.db #0x00	; 0
      000D0B 00                    2686 	.db #0x00	; 0
      000D0C 00                    2687 	.db #0x00	; 0
      000D0D 00                    2688 	.db #0x00	; 0
      000D0E 00                    2689 	.db #0x00	; 0
      000D0F E0                    2690 	.db #0xe0	; 224
      000D10 F0                    2691 	.db #0xf0	; 240
      000D11 F8                    2692 	.db #0xf8	; 248
      000D12 FC                    2693 	.db #0xfc	; 252
      000D13 FE                    2694 	.db #0xfe	; 254
      000D14 00                    2695 	.db #0x00	; 0
      000D15 7F                    2696 	.db #0x7f	; 127
      000D16 3F                    2697 	.db #0x3f	; 63
      000D17 9F                    2698 	.db #0x9f	; 159
      000D18 CF                    2699 	.db #0xcf	; 207
      000D19 E7                    2700 	.db #0xe7	; 231
      000D1A F0                    2701 	.db #0xf0	; 240
      000D1B F8                    2702 	.db #0xf8	; 248
      000D1C F8                    2703 	.db #0xf8	; 248
      000D1D F8                    2704 	.db #0xf8	; 248
      000D1E F8                    2705 	.db #0xf8	; 248
      000D1F F8                    2706 	.db #0xf8	; 248
      000D20 F8                    2707 	.db #0xf8	; 248
      000D21 F8                    2708 	.db #0xf8	; 248
      000D22 F0                    2709 	.db #0xf0	; 240
      000D23 E7                    2710 	.db #0xe7	; 231
      000D24 CF                    2711 	.db #0xcf	; 207
      000D25 9F                    2712 	.db #0x9f	; 159
      000D26 3F                    2713 	.db #0x3f	; 63
      000D27 7F                    2714 	.db #0x7f	; 127
      000D28 00                    2715 	.db #0x00	; 0
      000D29 00                    2716 	.db #0x00	; 0
      000D2A 00                    2717 	.db #0x00	; 0
      000D2B 00                    2718 	.db #0x00	; 0
      000D2C 00                    2719 	.db #0x00	; 0
      000D2D 00                    2720 	.db #0x00	; 0
      000D2E 00                    2721 	.db #0x00	; 0
      000D2F 00                    2722 	.db #0x00	; 0
      000D30 00                    2723 	.db #0x00	; 0
      000D31 00                    2724 	.db #0x00	; 0
      000D32 00                    2725 	.db #0x00	; 0
      000D33 00                    2726 	.db #0x00	; 0
      000D34 00                    2727 	.db #0x00	; 0
      000D35 00                    2728 	.db #0x00	; 0
      000D36 00                    2729 	.db #0x00	; 0
      000D37 C0                    2730 	.db #0xc0	; 192
      000D38 E0                    2731 	.db #0xe0	; 224
      000D39 F0                    2732 	.db #0xf0	; 240
      000D3A F8                    2733 	.db #0xf8	; 248
      000D3B FC                    2734 	.db #0xfc	; 252
      000D3C 00                    2735 	.db #0x00	; 0
      000D3D 00                    2736 	.db #0x00	; 0
      000D3E 00                    2737 	.db #0x00	; 0
      000D3F 00                    2738 	.db #0x00	; 0
      000D40 00                    2739 	.db #0x00	; 0
      000D41 00                    2740 	.db #0x00	; 0
      000D42 00                    2741 	.db #0x00	; 0
      000D43 00                    2742 	.db #0x00	; 0
      000D44 00                    2743 	.db #0x00	; 0
      000D45 00                    2744 	.db #0x00	; 0
      000D46 00                    2745 	.db #0x00	; 0
      000D47 00                    2746 	.db #0x00	; 0
      000D48 00                    2747 	.db #0x00	; 0
      000D49 00                    2748 	.db #0x00	; 0
      000D4A 00                    2749 	.db #0x00	; 0
      000D4B 0F                    2750 	.db #0x0f	; 15
      000D4C 1F                    2751 	.db #0x1f	; 31
      000D4D 3F                    2752 	.db #0x3f	; 63
      000D4E 7F                    2753 	.db #0x7f	; 127
      000D4F FF                    2754 	.db #0xff	; 255
      000D50 00                    2755 	.db #0x00	; 0
      000D51 00                    2756 	.db #0x00	; 0
      000D52 00                    2757 	.db #0x00	; 0
      000D53 00                    2758 	.db #0x00	; 0
      000D54 00                    2759 	.db #0x00	; 0
      000D55 00                    2760 	.db #0x00	; 0
      000D56 00                    2761 	.db #0x00	; 0
      000D57 00                    2762 	.db #0x00	; 0
      000D58 00                    2763 	.db #0x00	; 0
      000D59 00                    2764 	.db #0x00	; 0
      000D5A 00                    2765 	.db #0x00	; 0
      000D5B 00                    2766 	.db #0x00	; 0
      000D5C 00                    2767 	.db #0x00	; 0
      000D5D 00                    2768 	.db #0x00	; 0
      000D5E 00                    2769 	.db #0x00	; 0
      000D5F E0                    2770 	.db #0xe0	; 224
      000D60 F0                    2771 	.db #0xf0	; 240
      000D61 F8                    2772 	.db #0xf8	; 248
      000D62 FC                    2773 	.db #0xfc	; 252
      000D63 FE                    2774 	.db #0xfe	; 254
      000D64 00                    2775 	.db #0x00	; 0
      000D65 00                    2776 	.db #0x00	; 0
      000D66 00                    2777 	.db #0x00	; 0
      000D67 00                    2778 	.db #0x00	; 0
      000D68 00                    2779 	.db #0x00	; 0
      000D69 00                    2780 	.db #0x00	; 0
      000D6A 00                    2781 	.db #0x00	; 0
      000D6B 00                    2782 	.db #0x00	; 0
      000D6C 00                    2783 	.db #0x00	; 0
      000D6D 00                    2784 	.db #0x00	; 0
      000D6E 00                    2785 	.db #0x00	; 0
      000D6F 00                    2786 	.db #0x00	; 0
      000D70 00                    2787 	.db #0x00	; 0
      000D71 00                    2788 	.db #0x00	; 0
      000D72 00                    2789 	.db #0x00	; 0
      000D73 07                    2790 	.db #0x07	; 7
      000D74 0F                    2791 	.db #0x0f	; 15
      000D75 1F                    2792 	.db #0x1f	; 31
      000D76 3F                    2793 	.db #0x3f	; 63
      000D77 7F                    2794 	.db #0x7f	; 127
      000D78 00                    2795 	.db #0x00	; 0
      000D79 00                    2796 	.db #0x00	; 0
      000D7A 00                    2797 	.db #0x00	; 0
      000D7B 02                    2798 	.db #0x02	; 2
      000D7C 06                    2799 	.db #0x06	; 6
      000D7D 0E                    2800 	.db #0x0e	; 14
      000D7E 1E                    2801 	.db #0x1e	; 30
      000D7F 3E                    2802 	.db #0x3e	; 62
      000D80 3E                    2803 	.db #0x3e	; 62
      000D81 3E                    2804 	.db #0x3e	; 62
      000D82 3E                    2805 	.db #0x3e	; 62
      000D83 3E                    2806 	.db #0x3e	; 62
      000D84 3E                    2807 	.db #0x3e	; 62
      000D85 3E                    2808 	.db #0x3e	; 62
      000D86 1E                    2809 	.db #0x1e	; 30
      000D87 CE                    2810 	.db #0xce	; 206
      000D88 E6                    2811 	.db #0xe6	; 230
      000D89 F2                    2812 	.db #0xf2	; 242
      000D8A F8                    2813 	.db #0xf8	; 248
      000D8B FC                    2814 	.db #0xfc	; 252
      000D8C 00                    2815 	.db #0x00	; 0
      000D8D 00                    2816 	.db #0x00	; 0
      000D8E 00                    2817 	.db #0x00	; 0
      000D8F 80                    2818 	.db #0x80	; 128
      000D90 C0                    2819 	.db #0xc0	; 192
      000D91 C0                    2820 	.db #0xc0	; 192
      000D92 C0                    2821 	.db #0xc0	; 192
      000D93 C0                    2822 	.db #0xc0	; 192
      000D94 C0                    2823 	.db #0xc0	; 192
      000D95 C0                    2824 	.db #0xc0	; 192
      000D96 C0                    2825 	.db #0xc0	; 192
      000D97 C0                    2826 	.db #0xc0	; 192
      000D98 C0                    2827 	.db #0xc0	; 192
      000D99 C0                    2828 	.db #0xc0	; 192
      000D9A C0                    2829 	.db #0xc0	; 192
      000D9B C7                    2830 	.db #0xc7	; 199
      000D9C CF                    2831 	.db #0xcf	; 207
      000D9D 9F                    2832 	.db #0x9f	; 159
      000D9E 3F                    2833 	.db #0x3f	; 63
      000D9F 7F                    2834 	.db #0x7f	; 127
      000DA0 00                    2835 	.db #0x00	; 0
      000DA1 FC                    2836 	.db #0xfc	; 252
      000DA2 F9                    2837 	.db #0xf9	; 249
      000DA3 F3                    2838 	.db #0xf3	; 243
      000DA4 E7                    2839 	.db #0xe7	; 231
      000DA5 C7                    2840 	.db #0xc7	; 199
      000DA6 07                    2841 	.db #0x07	; 7
      000DA7 07                    2842 	.db #0x07	; 7
      000DA8 07                    2843 	.db #0x07	; 7
      000DA9 07                    2844 	.db #0x07	; 7
      000DAA 07                    2845 	.db #0x07	; 7
      000DAB 07                    2846 	.db #0x07	; 7
      000DAC 07                    2847 	.db #0x07	; 7
      000DAD 07                    2848 	.db #0x07	; 7
      000DAE 07                    2849 	.db #0x07	; 7
      000DAF 07                    2850 	.db #0x07	; 7
      000DB0 07                    2851 	.db #0x07	; 7
      000DB1 03                    2852 	.db #0x03	; 3
      000DB2 01                    2853 	.db #0x01	; 1
      000DB3 00                    2854 	.db #0x00	; 0
      000DB4 00                    2855 	.db #0x00	; 0
      000DB5 7F                    2856 	.db #0x7f	; 127
      000DB6 3F                    2857 	.db #0x3f	; 63
      000DB7 9F                    2858 	.db #0x9f	; 159
      000DB8 CF                    2859 	.db #0xcf	; 207
      000DB9 E7                    2860 	.db #0xe7	; 231
      000DBA F0                    2861 	.db #0xf0	; 240
      000DBB F0                    2862 	.db #0xf0	; 240
      000DBC F8                    2863 	.db #0xf8	; 248
      000DBD F8                    2864 	.db #0xf8	; 248
      000DBE F8                    2865 	.db #0xf8	; 248
      000DBF F8                    2866 	.db #0xf8	; 248
      000DC0 F8                    2867 	.db #0xf8	; 248
      000DC1 F8                    2868 	.db #0xf8	; 248
      000DC2 F0                    2869 	.db #0xf0	; 240
      000DC3 E0                    2870 	.db #0xe0	; 224
      000DC4 C0                    2871 	.db #0xc0	; 192
      000DC5 80                    2872 	.db #0x80	; 128
      000DC6 00                    2873 	.db #0x00	; 0
      000DC7 00                    2874 	.db #0x00	; 0
      000DC8 00                    2875 	.db #0x00	; 0
      000DC9 00                    2876 	.db #0x00	; 0
      000DCA 00                    2877 	.db #0x00	; 0
      000DCB 02                    2878 	.db #0x02	; 2
      000DCC 06                    2879 	.db #0x06	; 6
      000DCD 0E                    2880 	.db #0x0e	; 14
      000DCE 1E                    2881 	.db #0x1e	; 30
      000DCF 3E                    2882 	.db #0x3e	; 62
      000DD0 3E                    2883 	.db #0x3e	; 62
      000DD1 3E                    2884 	.db #0x3e	; 62
      000DD2 3E                    2885 	.db #0x3e	; 62
      000DD3 3E                    2886 	.db #0x3e	; 62
      000DD4 3E                    2887 	.db #0x3e	; 62
      000DD5 3E                    2888 	.db #0x3e	; 62
      000DD6 1E                    2889 	.db #0x1e	; 30
      000DD7 CE                    2890 	.db #0xce	; 206
      000DD8 E6                    2891 	.db #0xe6	; 230
      000DD9 F2                    2892 	.db #0xf2	; 242
      000DDA F8                    2893 	.db #0xf8	; 248
      000DDB FC                    2894 	.db #0xfc	; 252
      000DDC 00                    2895 	.db #0x00	; 0
      000DDD 00                    2896 	.db #0x00	; 0
      000DDE 00                    2897 	.db #0x00	; 0
      000DDF 80                    2898 	.db #0x80	; 128
      000DE0 C0                    2899 	.db #0xc0	; 192
      000DE1 C0                    2900 	.db #0xc0	; 192
      000DE2 C0                    2901 	.db #0xc0	; 192
      000DE3 C0                    2902 	.db #0xc0	; 192
      000DE4 C0                    2903 	.db #0xc0	; 192
      000DE5 C0                    2904 	.db #0xc0	; 192
      000DE6 C0                    2905 	.db #0xc0	; 192
      000DE7 C0                    2906 	.db #0xc0	; 192
      000DE8 C0                    2907 	.db #0xc0	; 192
      000DE9 C0                    2908 	.db #0xc0	; 192
      000DEA C0                    2909 	.db #0xc0	; 192
      000DEB C7                    2910 	.db #0xc7	; 199
      000DEC CF                    2911 	.db #0xcf	; 207
      000DED 9F                    2912 	.db #0x9f	; 159
      000DEE 3F                    2913 	.db #0x3f	; 63
      000DEF 7F                    2914 	.db #0x7f	; 127
      000DF0 00                    2915 	.db #0x00	; 0
      000DF1 00                    2916 	.db #0x00	; 0
      000DF2 01                    2917 	.db #0x01	; 1
      000DF3 03                    2918 	.db #0x03	; 3
      000DF4 07                    2919 	.db #0x07	; 7
      000DF5 07                    2920 	.db #0x07	; 7
      000DF6 07                    2921 	.db #0x07	; 7
      000DF7 07                    2922 	.db #0x07	; 7
      000DF8 07                    2923 	.db #0x07	; 7
      000DF9 07                    2924 	.db #0x07	; 7
      000DFA 07                    2925 	.db #0x07	; 7
      000DFB 07                    2926 	.db #0x07	; 7
      000DFC 07                    2927 	.db #0x07	; 7
      000DFD 07                    2928 	.db #0x07	; 7
      000DFE 07                    2929 	.db #0x07	; 7
      000DFF C7                    2930 	.db #0xc7	; 199
      000E00 E7                    2931 	.db #0xe7	; 231
      000E01 F3                    2932 	.db #0xf3	; 243
      000E02 F9                    2933 	.db #0xf9	; 249
      000E03 FC                    2934 	.db #0xfc	; 252
      000E04 00                    2935 	.db #0x00	; 0
      000E05 00                    2936 	.db #0x00	; 0
      000E06 00                    2937 	.db #0x00	; 0
      000E07 80                    2938 	.db #0x80	; 128
      000E08 C0                    2939 	.db #0xc0	; 192
      000E09 E0                    2940 	.db #0xe0	; 224
      000E0A F0                    2941 	.db #0xf0	; 240
      000E0B F0                    2942 	.db #0xf0	; 240
      000E0C F8                    2943 	.db #0xf8	; 248
      000E0D F8                    2944 	.db #0xf8	; 248
      000E0E F8                    2945 	.db #0xf8	; 248
      000E0F F8                    2946 	.db #0xf8	; 248
      000E10 F8                    2947 	.db #0xf8	; 248
      000E11 F8                    2948 	.db #0xf8	; 248
      000E12 F0                    2949 	.db #0xf0	; 240
      000E13 E7                    2950 	.db #0xe7	; 231
      000E14 CF                    2951 	.db #0xcf	; 207
      000E15 9F                    2952 	.db #0x9f	; 159
      000E16 3F                    2953 	.db #0x3f	; 63
      000E17 7F                    2954 	.db #0x7f	; 127
      000E18 00                    2955 	.db #0x00	; 0
      000E19 FC                    2956 	.db #0xfc	; 252
      000E1A F8                    2957 	.db #0xf8	; 248
      000E1B F0                    2958 	.db #0xf0	; 240
      000E1C E0                    2959 	.db #0xe0	; 224
      000E1D C0                    2960 	.db #0xc0	; 192
      000E1E 00                    2961 	.db #0x00	; 0
      000E1F 00                    2962 	.db #0x00	; 0
      000E20 00                    2963 	.db #0x00	; 0
      000E21 00                    2964 	.db #0x00	; 0
      000E22 00                    2965 	.db #0x00	; 0
      000E23 00                    2966 	.db #0x00	; 0
      000E24 00                    2967 	.db #0x00	; 0
      000E25 00                    2968 	.db #0x00	; 0
      000E26 00                    2969 	.db #0x00	; 0
      000E27 C0                    2970 	.db #0xc0	; 192
      000E28 E0                    2971 	.db #0xe0	; 224
      000E29 F0                    2972 	.db #0xf0	; 240
      000E2A F8                    2973 	.db #0xf8	; 248
      000E2B FC                    2974 	.db #0xfc	; 252
      000E2C 00                    2975 	.db #0x00	; 0
      000E2D 7F                    2976 	.db #0x7f	; 127
      000E2E 3F                    2977 	.db #0x3f	; 63
      000E2F 9F                    2978 	.db #0x9f	; 159
      000E30 CF                    2979 	.db #0xcf	; 207
      000E31 C7                    2980 	.db #0xc7	; 199
      000E32 C0                    2981 	.db #0xc0	; 192
      000E33 C0                    2982 	.db #0xc0	; 192
      000E34 C0                    2983 	.db #0xc0	; 192
      000E35 C0                    2984 	.db #0xc0	; 192
      000E36 C0                    2985 	.db #0xc0	; 192
      000E37 C0                    2986 	.db #0xc0	; 192
      000E38 C0                    2987 	.db #0xc0	; 192
      000E39 C0                    2988 	.db #0xc0	; 192
      000E3A C0                    2989 	.db #0xc0	; 192
      000E3B C7                    2990 	.db #0xc7	; 199
      000E3C CF                    2991 	.db #0xcf	; 207
      000E3D 9F                    2992 	.db #0x9f	; 159
      000E3E 3F                    2993 	.db #0x3f	; 63
      000E3F 7F                    2994 	.db #0x7f	; 127
      000E40 00                    2995 	.db #0x00	; 0
      000E41 00                    2996 	.db #0x00	; 0
      000E42 01                    2997 	.db #0x01	; 1
      000E43 03                    2998 	.db #0x03	; 3
      000E44 07                    2999 	.db #0x07	; 7
      000E45 07                    3000 	.db #0x07	; 7
      000E46 07                    3001 	.db #0x07	; 7
      000E47 07                    3002 	.db #0x07	; 7
      000E48 07                    3003 	.db #0x07	; 7
      000E49 07                    3004 	.db #0x07	; 7
      000E4A 07                    3005 	.db #0x07	; 7
      000E4B 07                    3006 	.db #0x07	; 7
      000E4C 07                    3007 	.db #0x07	; 7
      000E4D 07                    3008 	.db #0x07	; 7
      000E4E 07                    3009 	.db #0x07	; 7
      000E4F C7                    3010 	.db #0xc7	; 199
      000E50 E7                    3011 	.db #0xe7	; 231
      000E51 F3                    3012 	.db #0xf3	; 243
      000E52 F9                    3013 	.db #0xf9	; 249
      000E53 FC                    3014 	.db #0xfc	; 252
      000E54 00                    3015 	.db #0x00	; 0
      000E55 00                    3016 	.db #0x00	; 0
      000E56 00                    3017 	.db #0x00	; 0
      000E57 00                    3018 	.db #0x00	; 0
      000E58 00                    3019 	.db #0x00	; 0
      000E59 00                    3020 	.db #0x00	; 0
      000E5A 00                    3021 	.db #0x00	; 0
      000E5B 00                    3022 	.db #0x00	; 0
      000E5C 00                    3023 	.db #0x00	; 0
      000E5D 00                    3024 	.db #0x00	; 0
      000E5E 00                    3025 	.db #0x00	; 0
      000E5F 00                    3026 	.db #0x00	; 0
      000E60 00                    3027 	.db #0x00	; 0
      000E61 00                    3028 	.db #0x00	; 0
      000E62 00                    3029 	.db #0x00	; 0
      000E63 07                    3030 	.db #0x07	; 7
      000E64 0F                    3031 	.db #0x0f	; 15
      000E65 1F                    3032 	.db #0x1f	; 31
      000E66 3F                    3033 	.db #0x3f	; 63
      000E67 7F                    3034 	.db #0x7f	; 127
      000E68 00                    3035 	.db #0x00	; 0
      000E69 FC                    3036 	.db #0xfc	; 252
      000E6A F8                    3037 	.db #0xf8	; 248
      000E6B F2                    3038 	.db #0xf2	; 242
      000E6C E6                    3039 	.db #0xe6	; 230
      000E6D CE                    3040 	.db #0xce	; 206
      000E6E 1E                    3041 	.db #0x1e	; 30
      000E6F 3E                    3042 	.db #0x3e	; 62
      000E70 3E                    3043 	.db #0x3e	; 62
      000E71 3E                    3044 	.db #0x3e	; 62
      000E72 3E                    3045 	.db #0x3e	; 62
      000E73 3E                    3046 	.db #0x3e	; 62
      000E74 3E                    3047 	.db #0x3e	; 62
      000E75 3E                    3048 	.db #0x3e	; 62
      000E76 1E                    3049 	.db #0x1e	; 30
      000E77 0E                    3050 	.db #0x0e	; 14
      000E78 06                    3051 	.db #0x06	; 6
      000E79 02                    3052 	.db #0x02	; 2
      000E7A 00                    3053 	.db #0x00	; 0
      000E7B 00                    3054 	.db #0x00	; 0
      000E7C 00                    3055 	.db #0x00	; 0
      000E7D 7F                    3056 	.db #0x7f	; 127
      000E7E 3F                    3057 	.db #0x3f	; 63
      000E7F 9F                    3058 	.db #0x9f	; 159
      000E80 CF                    3059 	.db #0xcf	; 207
      000E81 C7                    3060 	.db #0xc7	; 199
      000E82 C0                    3061 	.db #0xc0	; 192
      000E83 C0                    3062 	.db #0xc0	; 192
      000E84 C0                    3063 	.db #0xc0	; 192
      000E85 C0                    3064 	.db #0xc0	; 192
      000E86 C0                    3065 	.db #0xc0	; 192
      000E87 C0                    3066 	.db #0xc0	; 192
      000E88 C0                    3067 	.db #0xc0	; 192
      000E89 C0                    3068 	.db #0xc0	; 192
      000E8A C0                    3069 	.db #0xc0	; 192
      000E8B C0                    3070 	.db #0xc0	; 192
      000E8C C0                    3071 	.db #0xc0	; 192
      000E8D 80                    3072 	.db #0x80	; 128
      000E8E 00                    3073 	.db #0x00	; 0
      000E8F 00                    3074 	.db #0x00	; 0
      000E90 00                    3075 	.db #0x00	; 0
      000E91 00                    3076 	.db #0x00	; 0
      000E92 01                    3077 	.db #0x01	; 1
      000E93 03                    3078 	.db #0x03	; 3
      000E94 07                    3079 	.db #0x07	; 7
      000E95 07                    3080 	.db #0x07	; 7
      000E96 07                    3081 	.db #0x07	; 7
      000E97 07                    3082 	.db #0x07	; 7
      000E98 07                    3083 	.db #0x07	; 7
      000E99 07                    3084 	.db #0x07	; 7
      000E9A 07                    3085 	.db #0x07	; 7
      000E9B 07                    3086 	.db #0x07	; 7
      000E9C 07                    3087 	.db #0x07	; 7
      000E9D 07                    3088 	.db #0x07	; 7
      000E9E 07                    3089 	.db #0x07	; 7
      000E9F C7                    3090 	.db #0xc7	; 199
      000EA0 E7                    3091 	.db #0xe7	; 231
      000EA1 F3                    3092 	.db #0xf3	; 243
      000EA2 F9                    3093 	.db #0xf9	; 249
      000EA3 FC                    3094 	.db #0xfc	; 252
      000EA4 00                    3095 	.db #0x00	; 0
      000EA5 00                    3096 	.db #0x00	; 0
      000EA6 00                    3097 	.db #0x00	; 0
      000EA7 80                    3098 	.db #0x80	; 128
      000EA8 C0                    3099 	.db #0xc0	; 192
      000EA9 E0                    3100 	.db #0xe0	; 224
      000EAA F0                    3101 	.db #0xf0	; 240
      000EAB F0                    3102 	.db #0xf0	; 240
      000EAC F8                    3103 	.db #0xf8	; 248
      000EAD F8                    3104 	.db #0xf8	; 248
      000EAE F8                    3105 	.db #0xf8	; 248
      000EAF F8                    3106 	.db #0xf8	; 248
      000EB0 F8                    3107 	.db #0xf8	; 248
      000EB1 F8                    3108 	.db #0xf8	; 248
      000EB2 F0                    3109 	.db #0xf0	; 240
      000EB3 E7                    3110 	.db #0xe7	; 231
      000EB4 CF                    3111 	.db #0xcf	; 207
      000EB5 9F                    3112 	.db #0x9f	; 159
      000EB6 3F                    3113 	.db #0x3f	; 63
      000EB7 7F                    3114 	.db #0x7f	; 127
      000EB8 00                    3115 	.db #0x00	; 0
      000EB9 FC                    3116 	.db #0xfc	; 252
      000EBA F8                    3117 	.db #0xf8	; 248
      000EBB F2                    3118 	.db #0xf2	; 242
      000EBC E6                    3119 	.db #0xe6	; 230
      000EBD CE                    3120 	.db #0xce	; 206
      000EBE 1E                    3121 	.db #0x1e	; 30
      000EBF 3E                    3122 	.db #0x3e	; 62
      000EC0 3E                    3123 	.db #0x3e	; 62
      000EC1 3E                    3124 	.db #0x3e	; 62
      000EC2 3E                    3125 	.db #0x3e	; 62
      000EC3 3E                    3126 	.db #0x3e	; 62
      000EC4 3E                    3127 	.db #0x3e	; 62
      000EC5 3E                    3128 	.db #0x3e	; 62
      000EC6 1E                    3129 	.db #0x1e	; 30
      000EC7 0E                    3130 	.db #0x0e	; 14
      000EC8 06                    3131 	.db #0x06	; 6
      000EC9 02                    3132 	.db #0x02	; 2
      000ECA 00                    3133 	.db #0x00	; 0
      000ECB 00                    3134 	.db #0x00	; 0
      000ECC 00                    3135 	.db #0x00	; 0
      000ECD 7F                    3136 	.db #0x7f	; 127
      000ECE 3F                    3137 	.db #0x3f	; 63
      000ECF 9F                    3138 	.db #0x9f	; 159
      000ED0 CF                    3139 	.db #0xcf	; 207
      000ED1 C7                    3140 	.db #0xc7	; 199
      000ED2 C0                    3141 	.db #0xc0	; 192
      000ED3 C0                    3142 	.db #0xc0	; 192
      000ED4 C0                    3143 	.db #0xc0	; 192
      000ED5 C0                    3144 	.db #0xc0	; 192
      000ED6 C0                    3145 	.db #0xc0	; 192
      000ED7 C0                    3146 	.db #0xc0	; 192
      000ED8 C0                    3147 	.db #0xc0	; 192
      000ED9 C0                    3148 	.db #0xc0	; 192
      000EDA C0                    3149 	.db #0xc0	; 192
      000EDB C0                    3150 	.db #0xc0	; 192
      000EDC C0                    3151 	.db #0xc0	; 192
      000EDD 80                    3152 	.db #0x80	; 128
      000EDE 00                    3153 	.db #0x00	; 0
      000EDF 00                    3154 	.db #0x00	; 0
      000EE0 00                    3155 	.db #0x00	; 0
      000EE1 FC                    3156 	.db #0xfc	; 252
      000EE2 F9                    3157 	.db #0xf9	; 249
      000EE3 F3                    3158 	.db #0xf3	; 243
      000EE4 E7                    3159 	.db #0xe7	; 231
      000EE5 C7                    3160 	.db #0xc7	; 199
      000EE6 07                    3161 	.db #0x07	; 7
      000EE7 07                    3162 	.db #0x07	; 7
      000EE8 07                    3163 	.db #0x07	; 7
      000EE9 07                    3164 	.db #0x07	; 7
      000EEA 07                    3165 	.db #0x07	; 7
      000EEB 07                    3166 	.db #0x07	; 7
      000EEC 07                    3167 	.db #0x07	; 7
      000EED 07                    3168 	.db #0x07	; 7
      000EEE 07                    3169 	.db #0x07	; 7
      000EEF C7                    3170 	.db #0xc7	; 199
      000EF0 E7                    3171 	.db #0xe7	; 231
      000EF1 F3                    3172 	.db #0xf3	; 243
      000EF2 F9                    3173 	.db #0xf9	; 249
      000EF3 FC                    3174 	.db #0xfc	; 252
      000EF4 00                    3175 	.db #0x00	; 0
      000EF5 7F                    3176 	.db #0x7f	; 127
      000EF6 3F                    3177 	.db #0x3f	; 63
      000EF7 9F                    3178 	.db #0x9f	; 159
      000EF8 CF                    3179 	.db #0xcf	; 207
      000EF9 E7                    3180 	.db #0xe7	; 231
      000EFA F0                    3181 	.db #0xf0	; 240
      000EFB F0                    3182 	.db #0xf0	; 240
      000EFC F8                    3183 	.db #0xf8	; 248
      000EFD F8                    3184 	.db #0xf8	; 248
      000EFE F8                    3185 	.db #0xf8	; 248
      000EFF F8                    3186 	.db #0xf8	; 248
      000F00 F8                    3187 	.db #0xf8	; 248
      000F01 F8                    3188 	.db #0xf8	; 248
      000F02 F0                    3189 	.db #0xf0	; 240
      000F03 E7                    3190 	.db #0xe7	; 231
      000F04 CF                    3191 	.db #0xcf	; 207
      000F05 9F                    3192 	.db #0x9f	; 159
      000F06 3F                    3193 	.db #0x3f	; 63
      000F07 7F                    3194 	.db #0x7f	; 127
      000F08 00                    3195 	.db #0x00	; 0
      000F09 00                    3196 	.db #0x00	; 0
      000F0A 00                    3197 	.db #0x00	; 0
      000F0B 02                    3198 	.db #0x02	; 2
      000F0C 06                    3199 	.db #0x06	; 6
      000F0D 0E                    3200 	.db #0x0e	; 14
      000F0E 1E                    3201 	.db #0x1e	; 30
      000F0F 3E                    3202 	.db #0x3e	; 62
      000F10 3E                    3203 	.db #0x3e	; 62
      000F11 3E                    3204 	.db #0x3e	; 62
      000F12 3E                    3205 	.db #0x3e	; 62
      000F13 3E                    3206 	.db #0x3e	; 62
      000F14 3E                    3207 	.db #0x3e	; 62
      000F15 3E                    3208 	.db #0x3e	; 62
      000F16 1E                    3209 	.db #0x1e	; 30
      000F17 CE                    3210 	.db #0xce	; 206
      000F18 E6                    3211 	.db #0xe6	; 230
      000F19 F2                    3212 	.db #0xf2	; 242
      000F1A F8                    3213 	.db #0xf8	; 248
      000F1B FC                    3214 	.db #0xfc	; 252
      000F1C 00                    3215 	.db #0x00	; 0
      000F1D 00                    3216 	.db #0x00	; 0
      000F1E 00                    3217 	.db #0x00	; 0
      000F1F 00                    3218 	.db #0x00	; 0
      000F20 00                    3219 	.db #0x00	; 0
      000F21 00                    3220 	.db #0x00	; 0
      000F22 00                    3221 	.db #0x00	; 0
      000F23 00                    3222 	.db #0x00	; 0
      000F24 00                    3223 	.db #0x00	; 0
      000F25 00                    3224 	.db #0x00	; 0
      000F26 00                    3225 	.db #0x00	; 0
      000F27 00                    3226 	.db #0x00	; 0
      000F28 00                    3227 	.db #0x00	; 0
      000F29 00                    3228 	.db #0x00	; 0
      000F2A 00                    3229 	.db #0x00	; 0
      000F2B 0F                    3230 	.db #0x0f	; 15
      000F2C 1F                    3231 	.db #0x1f	; 31
      000F2D 3F                    3232 	.db #0x3f	; 63
      000F2E 7F                    3233 	.db #0x7f	; 127
      000F2F FF                    3234 	.db #0xff	; 255
      000F30 00                    3235 	.db #0x00	; 0
      000F31 00                    3236 	.db #0x00	; 0
      000F32 00                    3237 	.db #0x00	; 0
      000F33 00                    3238 	.db #0x00	; 0
      000F34 00                    3239 	.db #0x00	; 0
      000F35 00                    3240 	.db #0x00	; 0
      000F36 00                    3241 	.db #0x00	; 0
      000F37 00                    3242 	.db #0x00	; 0
      000F38 00                    3243 	.db #0x00	; 0
      000F39 00                    3244 	.db #0x00	; 0
      000F3A 00                    3245 	.db #0x00	; 0
      000F3B 00                    3246 	.db #0x00	; 0
      000F3C 00                    3247 	.db #0x00	; 0
      000F3D 00                    3248 	.db #0x00	; 0
      000F3E 00                    3249 	.db #0x00	; 0
      000F3F E0                    3250 	.db #0xe0	; 224
      000F40 F0                    3251 	.db #0xf0	; 240
      000F41 F8                    3252 	.db #0xf8	; 248
      000F42 FC                    3253 	.db #0xfc	; 252
      000F43 FE                    3254 	.db #0xfe	; 254
      000F44 00                    3255 	.db #0x00	; 0
      000F45 00                    3256 	.db #0x00	; 0
      000F46 00                    3257 	.db #0x00	; 0
      000F47 00                    3258 	.db #0x00	; 0
      000F48 00                    3259 	.db #0x00	; 0
      000F49 00                    3260 	.db #0x00	; 0
      000F4A 00                    3261 	.db #0x00	; 0
      000F4B 00                    3262 	.db #0x00	; 0
      000F4C 00                    3263 	.db #0x00	; 0
      000F4D 00                    3264 	.db #0x00	; 0
      000F4E 00                    3265 	.db #0x00	; 0
      000F4F 00                    3266 	.db #0x00	; 0
      000F50 00                    3267 	.db #0x00	; 0
      000F51 00                    3268 	.db #0x00	; 0
      000F52 00                    3269 	.db #0x00	; 0
      000F53 07                    3270 	.db #0x07	; 7
      000F54 0F                    3271 	.db #0x0f	; 15
      000F55 1F                    3272 	.db #0x1f	; 31
      000F56 3F                    3273 	.db #0x3f	; 63
      000F57 7F                    3274 	.db #0x7f	; 127
      000F58 00                    3275 	.db #0x00	; 0
      000F59 FC                    3276 	.db #0xfc	; 252
      000F5A F8                    3277 	.db #0xf8	; 248
      000F5B F2                    3278 	.db #0xf2	; 242
      000F5C E6                    3279 	.db #0xe6	; 230
      000F5D CE                    3280 	.db #0xce	; 206
      000F5E 1E                    3281 	.db #0x1e	; 30
      000F5F 3E                    3282 	.db #0x3e	; 62
      000F60 3E                    3283 	.db #0x3e	; 62
      000F61 3E                    3284 	.db #0x3e	; 62
      000F62 3E                    3285 	.db #0x3e	; 62
      000F63 3E                    3286 	.db #0x3e	; 62
      000F64 3E                    3287 	.db #0x3e	; 62
      000F65 3E                    3288 	.db #0x3e	; 62
      000F66 1E                    3289 	.db #0x1e	; 30
      000F67 CE                    3290 	.db #0xce	; 206
      000F68 E6                    3291 	.db #0xe6	; 230
      000F69 F2                    3292 	.db #0xf2	; 242
      000F6A F8                    3293 	.db #0xf8	; 248
      000F6B FC                    3294 	.db #0xfc	; 252
      000F6C 00                    3295 	.db #0x00	; 0
      000F6D 7F                    3296 	.db #0x7f	; 127
      000F6E 3F                    3297 	.db #0x3f	; 63
      000F6F 9F                    3298 	.db #0x9f	; 159
      000F70 CF                    3299 	.db #0xcf	; 207
      000F71 C7                    3300 	.db #0xc7	; 199
      000F72 C0                    3301 	.db #0xc0	; 192
      000F73 C0                    3302 	.db #0xc0	; 192
      000F74 C0                    3303 	.db #0xc0	; 192
      000F75 C0                    3304 	.db #0xc0	; 192
      000F76 C0                    3305 	.db #0xc0	; 192
      000F77 C0                    3306 	.db #0xc0	; 192
      000F78 C0                    3307 	.db #0xc0	; 192
      000F79 C0                    3308 	.db #0xc0	; 192
      000F7A C0                    3309 	.db #0xc0	; 192
      000F7B C7                    3310 	.db #0xc7	; 199
      000F7C CF                    3311 	.db #0xcf	; 207
      000F7D 9F                    3312 	.db #0x9f	; 159
      000F7E 3F                    3313 	.db #0x3f	; 63
      000F7F 7F                    3314 	.db #0x7f	; 127
      000F80 00                    3315 	.db #0x00	; 0
      000F81 FC                    3316 	.db #0xfc	; 252
      000F82 F9                    3317 	.db #0xf9	; 249
      000F83 F3                    3318 	.db #0xf3	; 243
      000F84 E7                    3319 	.db #0xe7	; 231
      000F85 C7                    3320 	.db #0xc7	; 199
      000F86 07                    3321 	.db #0x07	; 7
      000F87 07                    3322 	.db #0x07	; 7
      000F88 07                    3323 	.db #0x07	; 7
      000F89 07                    3324 	.db #0x07	; 7
      000F8A 07                    3325 	.db #0x07	; 7
      000F8B 07                    3326 	.db #0x07	; 7
      000F8C 07                    3327 	.db #0x07	; 7
      000F8D 07                    3328 	.db #0x07	; 7
      000F8E 07                    3329 	.db #0x07	; 7
      000F8F C7                    3330 	.db #0xc7	; 199
      000F90 E7                    3331 	.db #0xe7	; 231
      000F91 F3                    3332 	.db #0xf3	; 243
      000F92 F9                    3333 	.db #0xf9	; 249
      000F93 FC                    3334 	.db #0xfc	; 252
      000F94 00                    3335 	.db #0x00	; 0
      000F95 7F                    3336 	.db #0x7f	; 127
      000F96 3F                    3337 	.db #0x3f	; 63
      000F97 9F                    3338 	.db #0x9f	; 159
      000F98 CF                    3339 	.db #0xcf	; 207
      000F99 E7                    3340 	.db #0xe7	; 231
      000F9A F0                    3341 	.db #0xf0	; 240
      000F9B F0                    3342 	.db #0xf0	; 240
      000F9C F8                    3343 	.db #0xf8	; 248
      000F9D F8                    3344 	.db #0xf8	; 248
      000F9E F8                    3345 	.db #0xf8	; 248
      000F9F F8                    3346 	.db #0xf8	; 248
      000FA0 F8                    3347 	.db #0xf8	; 248
      000FA1 F8                    3348 	.db #0xf8	; 248
      000FA2 F0                    3349 	.db #0xf0	; 240
      000FA3 E7                    3350 	.db #0xe7	; 231
      000FA4 CF                    3351 	.db #0xcf	; 207
      000FA5 9F                    3352 	.db #0x9f	; 159
      000FA6 3F                    3353 	.db #0x3f	; 63
      000FA7 7F                    3354 	.db #0x7f	; 127
      000FA8 00                    3355 	.db #0x00	; 0
      000FA9 FC                    3356 	.db #0xfc	; 252
      000FAA F8                    3357 	.db #0xf8	; 248
      000FAB F2                    3358 	.db #0xf2	; 242
      000FAC E6                    3359 	.db #0xe6	; 230
      000FAD CE                    3360 	.db #0xce	; 206
      000FAE 1E                    3361 	.db #0x1e	; 30
      000FAF 3E                    3362 	.db #0x3e	; 62
      000FB0 3E                    3363 	.db #0x3e	; 62
      000FB1 3E                    3364 	.db #0x3e	; 62
      000FB2 3E                    3365 	.db #0x3e	; 62
      000FB3 3E                    3366 	.db #0x3e	; 62
      000FB4 3E                    3367 	.db #0x3e	; 62
      000FB5 3E                    3368 	.db #0x3e	; 62
      000FB6 1E                    3369 	.db #0x1e	; 30
      000FB7 CE                    3370 	.db #0xce	; 206
      000FB8 E6                    3371 	.db #0xe6	; 230
      000FB9 F2                    3372 	.db #0xf2	; 242
      000FBA F8                    3373 	.db #0xf8	; 248
      000FBB FC                    3374 	.db #0xfc	; 252
      000FBC 00                    3375 	.db #0x00	; 0
      000FBD 7F                    3376 	.db #0x7f	; 127
      000FBE 3F                    3377 	.db #0x3f	; 63
      000FBF 9F                    3378 	.db #0x9f	; 159
      000FC0 CF                    3379 	.db #0xcf	; 207
      000FC1 C7                    3380 	.db #0xc7	; 199
      000FC2 C0                    3381 	.db #0xc0	; 192
      000FC3 C0                    3382 	.db #0xc0	; 192
      000FC4 C0                    3383 	.db #0xc0	; 192
      000FC5 C0                    3384 	.db #0xc0	; 192
      000FC6 C0                    3385 	.db #0xc0	; 192
      000FC7 C0                    3386 	.db #0xc0	; 192
      000FC8 C0                    3387 	.db #0xc0	; 192
      000FC9 C0                    3388 	.db #0xc0	; 192
      000FCA C0                    3389 	.db #0xc0	; 192
      000FCB C7                    3390 	.db #0xc7	; 199
      000FCC CF                    3391 	.db #0xcf	; 207
      000FCD 9F                    3392 	.db #0x9f	; 159
      000FCE 3F                    3393 	.db #0x3f	; 63
      000FCF 7F                    3394 	.db #0x7f	; 127
      000FD0 00                    3395 	.db #0x00	; 0
      000FD1 00                    3396 	.db #0x00	; 0
      000FD2 01                    3397 	.db #0x01	; 1
      000FD3 03                    3398 	.db #0x03	; 3
      000FD4 07                    3399 	.db #0x07	; 7
      000FD5 07                    3400 	.db #0x07	; 7
      000FD6 07                    3401 	.db #0x07	; 7
      000FD7 07                    3402 	.db #0x07	; 7
      000FD8 07                    3403 	.db #0x07	; 7
      000FD9 07                    3404 	.db #0x07	; 7
      000FDA 07                    3405 	.db #0x07	; 7
      000FDB 07                    3406 	.db #0x07	; 7
      000FDC 07                    3407 	.db #0x07	; 7
      000FDD 07                    3408 	.db #0x07	; 7
      000FDE 07                    3409 	.db #0x07	; 7
      000FDF C7                    3410 	.db #0xc7	; 199
      000FE0 E7                    3411 	.db #0xe7	; 231
      000FE1 F3                    3412 	.db #0xf3	; 243
      000FE2 F9                    3413 	.db #0xf9	; 249
      000FE3 FC                    3414 	.db #0xfc	; 252
      000FE4 00                    3415 	.db #0x00	; 0
      000FE5 00                    3416 	.db #0x00	; 0
      000FE6 00                    3417 	.db #0x00	; 0
      000FE7 80                    3418 	.db #0x80	; 128
      000FE8 C0                    3419 	.db #0xc0	; 192
      000FE9 E0                    3420 	.db #0xe0	; 224
      000FEA F0                    3421 	.db #0xf0	; 240
      000FEB F0                    3422 	.db #0xf0	; 240
      000FEC F8                    3423 	.db #0xf8	; 248
      000FED F8                    3424 	.db #0xf8	; 248
      000FEE F8                    3425 	.db #0xf8	; 248
      000FEF F8                    3426 	.db #0xf8	; 248
      000FF0 F8                    3427 	.db #0xf8	; 248
      000FF1 F8                    3428 	.db #0xf8	; 248
      000FF2 F0                    3429 	.db #0xf0	; 240
      000FF3 E7                    3430 	.db #0xe7	; 231
      000FF4 CF                    3431 	.db #0xcf	; 207
      000FF5 9F                    3432 	.db #0x9f	; 159
      000FF6 3F                    3433 	.db #0x3f	; 63
      000FF7 7F                    3434 	.db #0x7f	; 127
      000FF8 00                    3435 	.db #0x00	; 0
      000FF9 00                    3436 	.db #0x00	; 0
      000FFA 00                    3437 	.db #0x00	; 0
      000FFB 00                    3438 	.db #0x00	; 0
      000FFC 00                    3439 	.db #0x00	; 0
      000FFD 00                    3440 	.db #0x00	; 0
      000FFE 00                    3441 	.db #0x00	; 0
      000FFF 00                    3442 	.db #0x00	; 0
      001000 00                    3443 	.db #0x00	; 0
      001001 00                    3444 	.db #0x00	; 0
      001002 00                    3445 	.db #0x00	; 0
      001003 00                    3446 	.db #0x00	; 0
      001004 00                    3447 	.db #0x00	; 0
      001005 00                    3448 	.db #0x00	; 0
      001006 00                    3449 	.db #0x00	; 0
      001007 00                    3450 	.db #0x00	; 0
      001008 00                    3451 	.db #0x00	; 0
      001009 00                    3452 	.db #0x00	; 0
      00100A 00                    3453 	.db #0x00	; 0
      00100B 00                    3454 	.db #0x00	; 0
      00100C 00                    3455 	.db #0x00	; 0
      00100D 00                    3456 	.db #0x00	; 0
      00100E 00                    3457 	.db #0x00	; 0
      00100F C0                    3458 	.db #0xc0	; 192
      001010 C0                    3459 	.db #0xc0	; 192
      001011 C0                    3460 	.db #0xc0	; 192
      001012 C0                    3461 	.db #0xc0	; 192
      001013 C0                    3462 	.db #0xc0	; 192
      001014 FE                    3463 	.db #0xfe	; 254
      001015 FE                    3464 	.db #0xfe	; 254
      001016 FE                    3465 	.db #0xfe	; 254
      001017 FE                    3466 	.db #0xfe	; 254
      001018 FE                    3467 	.db #0xfe	; 254
      001019 C0                    3468 	.db #0xc0	; 192
      00101A C0                    3469 	.db #0xc0	; 192
      00101B C0                    3470 	.db #0xc0	; 192
      00101C C0                    3471 	.db #0xc0	; 192
      00101D C0                    3472 	.db #0xc0	; 192
      00101E 00                    3473 	.db #0x00	; 0
      00101F 00                    3474 	.db #0x00	; 0
      001020 00                    3475 	.db #0x00	; 0
      001021 00                    3476 	.db #0x00	; 0
      001022 00                    3477 	.db #0x00	; 0
      001023 07                    3478 	.db #0x07	; 7
      001024 07                    3479 	.db #0x07	; 7
      001025 07                    3480 	.db #0x07	; 7
      001026 07                    3481 	.db #0x07	; 7
      001027 07                    3482 	.db #0x07	; 7
      001028 FF                    3483 	.db #0xff	; 255
      001029 FF                    3484 	.db #0xff	; 255
      00102A FF                    3485 	.db #0xff	; 255
      00102B FF                    3486 	.db #0xff	; 255
      00102C FF                    3487 	.db #0xff	; 255
      00102D 07                    3488 	.db #0x07	; 7
      00102E 07                    3489 	.db #0x07	; 7
      00102F 07                    3490 	.db #0x07	; 7
      001030 07                    3491 	.db #0x07	; 7
      001031 07                    3492 	.db #0x07	; 7
      001032 00                    3493 	.db #0x00	; 0
      001033 00                    3494 	.db #0x00	; 0
      001034 00                    3495 	.db #0x00	; 0
      001035 00                    3496 	.db #0x00	; 0
      001036 00                    3497 	.db #0x00	; 0
      001037 00                    3498 	.db #0x00	; 0
      001038 00                    3499 	.db #0x00	; 0
      001039 00                    3500 	.db #0x00	; 0
      00103A 00                    3501 	.db #0x00	; 0
      00103B 00                    3502 	.db #0x00	; 0
      00103C 00                    3503 	.db #0x00	; 0
      00103D 00                    3504 	.db #0x00	; 0
      00103E 00                    3505 	.db #0x00	; 0
      00103F 00                    3506 	.db #0x00	; 0
      001040 00                    3507 	.db #0x00	; 0
      001041 00                    3508 	.db #0x00	; 0
      001042 00                    3509 	.db #0x00	; 0
      001043 00                    3510 	.db #0x00	; 0
      001044 00                    3511 	.db #0x00	; 0
      001045 00                    3512 	.db #0x00	; 0
      001046 00                    3513 	.db #0x00	; 0
      001047 00                    3514 	.db #0x00	; 0
      001048 00                    3515 	.db #0x00	; 0
      001049 00                    3516 	.db #0x00	; 0
      00104A 00                    3517 	.db #0x00	; 0
      00104B 00                    3518 	.db #0x00	; 0
      00104C 00                    3519 	.db #0x00	; 0
      00104D 00                    3520 	.db #0x00	; 0
      00104E 00                    3521 	.db #0x00	; 0
      00104F 00                    3522 	.db #0x00	; 0
      001050 00                    3523 	.db #0x00	; 0
      001051 00                    3524 	.db #0x00	; 0
      001052 00                    3525 	.db #0x00	; 0
      001053 00                    3526 	.db #0x00	; 0
      001054 00                    3527 	.db #0x00	; 0
      001055 00                    3528 	.db #0x00	; 0
      001056 00                    3529 	.db #0x00	; 0
      001057 00                    3530 	.db #0x00	; 0
      001058 00                    3531 	.db #0x00	; 0
      001059 00                    3532 	.db #0x00	; 0
      00105A 00                    3533 	.db #0x00	; 0
      00105B 00                    3534 	.db #0x00	; 0
      00105C 00                    3535 	.db #0x00	; 0
      00105D 00                    3536 	.db #0x00	; 0
      00105E 00                    3537 	.db #0x00	; 0
      00105F C0                    3538 	.db #0xc0	; 192
      001060 C0                    3539 	.db #0xc0	; 192
      001061 C0                    3540 	.db #0xc0	; 192
      001062 C0                    3541 	.db #0xc0	; 192
      001063 C0                    3542 	.db #0xc0	; 192
      001064 C0                    3543 	.db #0xc0	; 192
      001065 C0                    3544 	.db #0xc0	; 192
      001066 C0                    3545 	.db #0xc0	; 192
      001067 C0                    3546 	.db #0xc0	; 192
      001068 C0                    3547 	.db #0xc0	; 192
      001069 C0                    3548 	.db #0xc0	; 192
      00106A C0                    3549 	.db #0xc0	; 192
      00106B C0                    3550 	.db #0xc0	; 192
      00106C C0                    3551 	.db #0xc0	; 192
      00106D C0                    3552 	.db #0xc0	; 192
      00106E 00                    3553 	.db #0x00	; 0
      00106F 00                    3554 	.db #0x00	; 0
      001070 00                    3555 	.db #0x00	; 0
      001071 00                    3556 	.db #0x00	; 0
      001072 00                    3557 	.db #0x00	; 0
      001073 07                    3558 	.db #0x07	; 7
      001074 07                    3559 	.db #0x07	; 7
      001075 07                    3560 	.db #0x07	; 7
      001076 07                    3561 	.db #0x07	; 7
      001077 07                    3562 	.db #0x07	; 7
      001078 07                    3563 	.db #0x07	; 7
      001079 07                    3564 	.db #0x07	; 7
      00107A 07                    3565 	.db #0x07	; 7
      00107B 07                    3566 	.db #0x07	; 7
      00107C 07                    3567 	.db #0x07	; 7
      00107D 07                    3568 	.db #0x07	; 7
      00107E 07                    3569 	.db #0x07	; 7
      00107F 07                    3570 	.db #0x07	; 7
      001080 07                    3571 	.db #0x07	; 7
      001081 07                    3572 	.db #0x07	; 7
      001082 00                    3573 	.db #0x00	; 0
      001083 00                    3574 	.db #0x00	; 0
      001084 00                    3575 	.db #0x00	; 0
      001085 00                    3576 	.db #0x00	; 0
      001086 00                    3577 	.db #0x00	; 0
      001087 00                    3578 	.db #0x00	; 0
      001088 00                    3579 	.db #0x00	; 0
      001089 00                    3580 	.db #0x00	; 0
      00108A 00                    3581 	.db #0x00	; 0
      00108B 00                    3582 	.db #0x00	; 0
      00108C 00                    3583 	.db #0x00	; 0
      00108D 00                    3584 	.db #0x00	; 0
      00108E 00                    3585 	.db #0x00	; 0
      00108F 00                    3586 	.db #0x00	; 0
      001090 00                    3587 	.db #0x00	; 0
      001091 00                    3588 	.db #0x00	; 0
      001092 00                    3589 	.db #0x00	; 0
      001093 00                    3590 	.db #0x00	; 0
      001094 00                    3591 	.db #0x00	; 0
      001095 00                    3592 	.db #0x00	; 0
      001096 00                    3593 	.db #0x00	; 0
      001097 00                    3594 	.db #0x00	; 0
      001098 00                    3595 	.db #0x00	; 0
      001099 00                    3596 	.db #0x00	; 0
      00109A 00                    3597 	.db #0x00	; 0
      00109B 00                    3598 	.db #0x00	; 0
      00109C 00                    3599 	.db #0x00	; 0
      00109D 00                    3600 	.db #0x00	; 0
      00109E 00                    3601 	.db #0x00	; 0
      00109F 00                    3602 	.db #0x00	; 0
      0010A0 00                    3603 	.db #0x00	; 0
      0010A1 00                    3604 	.db #0x00	; 0
      0010A2 00                    3605 	.db #0x00	; 0
      0010A3 00                    3606 	.db #0x00	; 0
      0010A4 00                    3607 	.db #0x00	; 0
      0010A5 00                    3608 	.db #0x00	; 0
      0010A6 00                    3609 	.db #0x00	; 0
      0010A7 00                    3610 	.db #0x00	; 0
      0010A8 00                    3611 	.db #0x00	; 0
      0010A9 00                    3612 	.db #0x00	; 0
      0010AA 00                    3613 	.db #0x00	; 0
      0010AB 00                    3614 	.db #0x00	; 0
      0010AC 00                    3615 	.db #0x00	; 0
      0010AD 00                    3616 	.db #0x00	; 0
      0010AE 00                    3617 	.db #0x00	; 0
      0010AF 00                    3618 	.db #0x00	; 0
      0010B0 00                    3619 	.db #0x00	; 0
      0010B1 00                    3620 	.db #0x00	; 0
      0010B2 00                    3621 	.db #0x00	; 0
      0010B3 00                    3622 	.db #0x00	; 0
      0010B4 00                    3623 	.db #0x00	; 0
      0010B5 00                    3624 	.db #0x00	; 0
      0010B6 00                    3625 	.db #0x00	; 0
      0010B7 00                    3626 	.db #0x00	; 0
      0010B8 00                    3627 	.db #0x00	; 0
      0010B9 00                    3628 	.db #0x00	; 0
      0010BA 00                    3629 	.db #0x00	; 0
      0010BB 00                    3630 	.db #0x00	; 0
      0010BC 00                    3631 	.db #0x00	; 0
      0010BD 00                    3632 	.db #0x00	; 0
      0010BE 00                    3633 	.db #0x00	; 0
      0010BF 00                    3634 	.db #0x00	; 0
      0010C0 00                    3635 	.db #0x00	; 0
      0010C1 00                    3636 	.db #0x00	; 0
      0010C2 00                    3637 	.db #0x00	; 0
      0010C3 00                    3638 	.db #0x00	; 0
      0010C4 00                    3639 	.db #0x00	; 0
      0010C5 00                    3640 	.db #0x00	; 0
      0010C6 00                    3641 	.db #0x00	; 0
      0010C7 00                    3642 	.db #0x00	; 0
      0010C8 00                    3643 	.db #0x00	; 0
      0010C9 00                    3644 	.db #0x00	; 0
      0010CA 00                    3645 	.db #0x00	; 0
      0010CB 00                    3646 	.db #0x00	; 0
      0010CC 00                    3647 	.db #0x00	; 0
      0010CD 00                    3648 	.db #0x00	; 0
      0010CE 00                    3649 	.db #0x00	; 0
      0010CF 00                    3650 	.db #0x00	; 0
      0010D0 00                    3651 	.db #0x00	; 0
      0010D1 00                    3652 	.db #0x00	; 0
      0010D2 00                    3653 	.db #0x00	; 0
      0010D3 00                    3654 	.db #0x00	; 0
      0010D4 00                    3655 	.db #0x00	; 0
      0010D5 00                    3656 	.db #0x00	; 0
      0010D6 00                    3657 	.db #0x00	; 0
      0010D7 00                    3658 	.db #0x00	; 0
      0010D8 00                    3659 	.db #0x00	; 0
      0010D9 3E                    3660 	.db #0x3e	; 62
      0010DA 3E                    3661 	.db #0x3e	; 62
      0010DB 3E                    3662 	.db #0x3e	; 62
      0010DC 3E                    3663 	.db #0x3e	; 62
      0010DD 3E                    3664 	.db #0x3e	; 62
      0010DE 00                    3665 	.db #0x00	; 0
      0010DF 00                    3666 	.db #0x00	; 0
      0010E0 00                    3667 	.db #0x00	; 0
      0010E1 00                    3668 	.db #0x00	; 0
      0010E2 00                    3669 	.db #0x00	; 0
      0010E3 00                    3670 	.db #0x00	; 0
      0010E4 00                    3671 	.db #0x00	; 0
      0010E5 00                    3672 	.db #0x00	; 0
      0010E6 00                    3673 	.db #0x00	; 0
      0010E7 00                    3674 	.db #0x00	; 0
                                   3675 	.area INITIALIZER
                                   3676 	.area CABS (ABS)
