;--------------------------------------------------------
; File Created by SDCC : free open source ANSI-C Compiler
; Version 3.6.0 #9615 (Mac OS X x86_64)
;--------------------------------------------------------
	.module main
	.optsdcc -mstm8
	
;--------------------------------------------------------
; Public variables in this module
;--------------------------------------------------------
	.globl _main
	.globl _TIM4_UPD_OVF_IRQHandler
	.globl _delay
	.globl _clock_setup
	.globl _LcdPixel
	.globl _LcdGotoXYFont
	.globl _LcdInit
	.globl _TIMER_InitTime
	.globl _TIMER_Inc
	.globl _TIMER_Init
	.globl _TIM4_ClearITPendingBit
	.globl _IWDG_Enable
	.globl _IWDG_ReloadCounter
	.globl _IWDG_SetReload
	.globl _IWDG_SetPrescaler
	.globl _IWDG_WriteAccessCmd
	.globl _GPIO_Init
	.globl _CLK_GetFlagStatus
	.globl _CLK_SYSCLKConfig
	.globl _CLK_HSIPrescalerConfig
	.globl _CLK_ClockSwitchConfig
	.globl _CLK_PeripheralClockConfig
	.globl _CLK_ClockSwitchCmd
	.globl _CLK_LSICmd
	.globl _CLK_HSICmd
	.globl _CLK_HSECmd
	.globl _CLK_DeInit
	.globl _tick
	.globl _IWDG_Config
;--------------------------------------------------------
; ram data
;--------------------------------------------------------
	.area DATA
_tick::
	.ds 6
;--------------------------------------------------------
; ram data
;--------------------------------------------------------
	.area INITIALIZED
;--------------------------------------------------------
; Stack segment in internal ram 
;--------------------------------------------------------
	.area	SSEG
__start__stack:
	.ds	1

;--------------------------------------------------------
; absolute external ram data
;--------------------------------------------------------
	.area DABS (ABS)
;--------------------------------------------------------
; interrupt vector 
;--------------------------------------------------------
	.area HOME
__interrupt_vect:
	int s_GSINIT ;reset
	int 0x0000 ;trap
	int 0x0000 ;int0
	int 0x0000 ;int1
	int 0x0000 ;int2
	int 0x0000 ;int3
	int 0x0000 ;int4
	int 0x0000 ;int5
	int 0x0000 ;int6
	int 0x0000 ;int7
	int 0x0000 ;int8
	int 0x0000 ;int9
	int 0x0000 ;int10
	int 0x0000 ;int11
	int 0x0000 ;int12
	int 0x0000 ;int13
	int 0x0000 ;int14
	int 0x0000 ;int15
	int 0x0000 ;int16
	int 0x0000 ;int17
	int 0x0000 ;int18
	int 0x0000 ;int19
	int 0x0000 ;int20
	int 0x0000 ;int21
	int 0x0000 ;int22
	int _TIM4_UPD_OVF_IRQHandler ;int23
	int 0x0000 ;int24
	int 0x0000 ;int25
	int 0x0000 ;int26
	int 0x0000 ;int27
	int 0x0000 ;int28
	int 0x0000 ;int29
;--------------------------------------------------------
; global & static initialisations
;--------------------------------------------------------
	.area HOME
	.area GSINIT
	.area GSFINAL
	.area GSINIT
__sdcc_gs_init_startup:
__sdcc_init_data:
; stm8_genXINIT() start
	ldw x, #l_DATA
	jreq	00002$
00001$:
	clr (s_DATA - 1, x)
	decw x
	jrne	00001$
00002$:
	ldw	x, #l_INITIALIZER
	jreq	00004$
00003$:
	ld	a, (s_INITIALIZER - 1, x)
	ld	(s_INITIALIZED - 1, x), a
	decw	x
	jrne	00003$
00004$:
; stm8_genXINIT() end
	.area GSFINAL
	jp	__sdcc_program_startup
;--------------------------------------------------------
; Home
;--------------------------------------------------------
	.area HOME
	.area HOME
__sdcc_program_startup:
	jp	_main
;	return from main will return to caller
;--------------------------------------------------------
; code
;--------------------------------------------------------
	.area CODE
;	user/main.c: 26: void clock_setup(void)
;	-----------------------------------------
;	 function clock_setup
;	-----------------------------------------
_clock_setup:
;	user/main.c: 28: CLK_DeInit();
	call	_CLK_DeInit
;	user/main.c: 29: CLK_HSECmd(DISABLE);
	push	#0x00
	call	_CLK_HSECmd
	pop	a
;	user/main.c: 30: CLK_LSICmd(DISABLE);
	push	#0x00
	call	_CLK_LSICmd
	pop	a
;	user/main.c: 31: CLK_HSICmd(ENABLE);
	push	#0x01
	call	_CLK_HSICmd
	pop	a
;	user/main.c: 32: while(CLK_GetFlagStatus(CLK_FLAG_HSIRDY) == FALSE);
00101$:
	push	#0x02
	push	#0x01
	call	_CLK_GetFlagStatus
	popw	x
	tnz	a
	jreq	00101$
;	user/main.c: 33: CLK_ClockSwitchCmd(ENABLE);
	push	#0x01
	call	_CLK_ClockSwitchCmd
	pop	a
;	user/main.c: 34: CLK_HSIPrescalerConfig(CLK_PRESCALER_HSIDIV8);
	push	#0x18
	call	_CLK_HSIPrescalerConfig
	pop	a
;	user/main.c: 35: CLK_SYSCLKConfig(CLK_PRESCALER_CPUDIV2);
	push	#0x81
	call	_CLK_SYSCLKConfig
	pop	a
;	user/main.c: 36: CLK_ClockSwitchConfig(CLK_SWITCHMODE_AUTO, CLK_SOURCE_HSI, DISABLE, CLK_CURRENTCLOCKSTATE_ENABLE);
	push	#0x01
	push	#0x00
	push	#0xe1
	push	#0x01
	call	_CLK_ClockSwitchConfig
	addw	sp, #4
;	user/main.c: 37: CLK_PeripheralClockConfig(CLK_PERIPHERAL_SPI, DISABLE);
	push	#0x00
	push	#0x01
	call	_CLK_PeripheralClockConfig
	popw	x
;	user/main.c: 38: CLK_PeripheralClockConfig(CLK_PERIPHERAL_I2C, ENABLE);
	push	#0x01
	push	#0x00
	call	_CLK_PeripheralClockConfig
	popw	x
;	user/main.c: 39: CLK_PeripheralClockConfig(CLK_PERIPHERAL_ADC, DISABLE);
	push	#0x00
	push	#0x13
	call	_CLK_PeripheralClockConfig
	popw	x
;	user/main.c: 40: CLK_PeripheralClockConfig(CLK_PERIPHERAL_AWU, DISABLE);
	push	#0x00
	push	#0x12
	call	_CLK_PeripheralClockConfig
	popw	x
;	user/main.c: 41: CLK_PeripheralClockConfig(CLK_PERIPHERAL_UART1, DISABLE);
	push	#0x00
	push	#0x03
	call	_CLK_PeripheralClockConfig
	popw	x
;	user/main.c: 42: CLK_PeripheralClockConfig(CLK_PERIPHERAL_TIMER1, DISABLE);
	push	#0x00
	push	#0x07
	call	_CLK_PeripheralClockConfig
	popw	x
;	user/main.c: 43: CLK_PeripheralClockConfig(CLK_PERIPHERAL_TIMER2, DISABLE);
	push	#0x00
	push	#0x05
	call	_CLK_PeripheralClockConfig
	popw	x
;	user/main.c: 44: CLK_PeripheralClockConfig(CLK_PERIPHERAL_TIMER4, ENABLE);
	push	#0x01
	push	#0x04
	call	_CLK_PeripheralClockConfig
	popw	x
	ret
;	user/main.c: 47: static void GPIO_Config(void)
;	-----------------------------------------
;	 function GPIO_Config
;	-----------------------------------------
_GPIO_Config:
;	user/main.c: 49: GPIO_Init(GPIOB, GPIO_PIN_4, GPIO_MODE_IN_PU_NO_IT);
	push	#0x40
	push	#0x10
	push	#0x05
	push	#0x50
	call	_GPIO_Init
	addw	sp, #4
;	user/main.c: 50: GPIO_Init(GPIOB, GPIO_PIN_5, GPIO_MODE_IN_PU_NO_IT);
	push	#0x40
	push	#0x20
	push	#0x05
	push	#0x50
	call	_GPIO_Init
	addw	sp, #4
	ret
;	user/main.c: 53: void delay(uint16_t x)
;	-----------------------------------------
;	 function delay
;	-----------------------------------------
_delay:
	pushw	x
;	user/main.c: 55: while(x--);
	ldw	x, (0x05, sp)
00101$:
	ldw	(0x01, sp), x
	decw	x
	ldw	y, (0x01, sp)
	jrne	00101$
	popw	x
	ret
;	user/main.c: 58: INTERRUPT_HANDLER(TIM4_UPD_OVF_IRQHandler, 23)
;	-----------------------------------------
;	 function TIM4_UPD_OVF_IRQHandler
;	-----------------------------------------
_TIM4_UPD_OVF_IRQHandler:
	div	x, a
;	user/main.c: 60: TIM4_ClearITPendingBit(TIM4_IT_UPDATE);
	push	#0x01
	call	_TIM4_ClearITPendingBit
	pop	a
;	user/main.c: 61: TIMER_Inc();
	call	_TIMER_Inc
;	user/main.c: 62: IWDG_ReloadCounter();
	call	_IWDG_ReloadCounter
	iret
;	user/main.c: 65: void IWDG_Config(void)
;	-----------------------------------------
;	 function IWDG_Config
;	-----------------------------------------
_IWDG_Config:
;	user/main.c: 69: IWDG_WriteAccessCmd(IWDG_WriteAccess_Enable);
	push	#0x55
	call	_IWDG_WriteAccessCmd
	pop	a
;	user/main.c: 71: IWDG_SetPrescaler(IWDG_Prescaler_256);
	push	#0x06
	call	_IWDG_SetPrescaler
	pop	a
;	user/main.c: 75: IWDG_SetReload(250);
	push	#0xfa
	call	_IWDG_SetReload
	pop	a
;	user/main.c: 77: IWDG_ReloadCounter();
	call	_IWDG_ReloadCounter
;	user/main.c: 79: IWDG_Enable();
	jp	_IWDG_Enable
;	user/main.c: 82: void main() 
;	-----------------------------------------
;	 function main
;	-----------------------------------------
_main:
;	user/main.c: 84: clock_setup();
	call	_clock_setup
;	user/main.c: 85: GPIO_Config();
	call	_GPIO_Config
;	user/main.c: 87: TIMER_Init();
	call	_TIMER_Init
;	user/main.c: 88: IWDG_Config();
	call	_IWDG_Config
;	user/main.c: 89: LcdInit();
	call	_LcdInit
;	user/main.c: 90: enableInterrupts();
	rim
;	user/main.c: 91: TIMER_InitTime(&tick);
	ldw	x, #_tick+0
	pushw	x
	call	_TIMER_InitTime
	popw	x
;	user/main.c: 92: LcdGotoXYFont(1,1);
	push	#0x01
	push	#0x01
	call	_LcdGotoXYFont
	popw	x
;	user/main.c: 93: LcdPixel(1,1, PIXEL_ON);
	push	#0x01
	push	#0x01
	push	#0x01
	call	_LcdPixel
	addw	sp, #3
;	user/main.c: 94: LcdPixel(2,1, PIXEL_ON);
	push	#0x01
	push	#0x01
	push	#0x02
	call	_LcdPixel
	addw	sp, #3
;	user/main.c: 95: LcdPixel(3,1, PIXEL_ON);
	push	#0x01
	push	#0x01
	push	#0x03
	call	_LcdPixel
	addw	sp, #3
;	user/main.c: 96: LcdPixel(4,1, PIXEL_ON);
	push	#0x01
	push	#0x01
	push	#0x04
	call	_LcdPixel
	addw	sp, #3
;	user/main.c: 97: while(TRUE) 
00102$:
	jra	00102$
	ret
	.area CODE
_FontLookup:
	.db #0x00	; 0
	.db #0x00	; 0
	.db #0x00	; 0
	.db #0x00	; 0
	.db #0x00	; 0
	.db #0x00	; 0
	.db #0x00	; 0
	.db #0x5f	; 95
	.db #0x00	; 0
	.db #0x00	; 0
	.db #0x00	; 0
	.db #0x07	; 7
	.db #0x00	; 0
	.db #0x07	; 7
	.db #0x00	; 0
	.db #0x14	; 20
	.db #0x7f	; 127
	.db #0x14	; 20
	.db #0x7f	; 127
	.db #0x14	; 20
	.db #0x24	; 36
	.db #0x2a	; 42
	.db #0x7f	; 127
	.db #0x2a	; 42
	.db #0x12	; 18
	.db #0x4c	; 76	'L'
	.db #0x2c	; 44
	.db #0x10	; 16
	.db #0x68	; 104	'h'
	.db #0x64	; 100	'd'
	.db #0x36	; 54	'6'
	.db #0x49	; 73	'I'
	.db #0x55	; 85	'U'
	.db #0x22	; 34
	.db #0x50	; 80	'P'
	.db #0x00	; 0
	.db #0x05	; 5
	.db #0x03	; 3
	.db #0x00	; 0
	.db #0x00	; 0
	.db #0x00	; 0
	.db #0x1c	; 28
	.db #0x22	; 34
	.db #0x41	; 65	'A'
	.db #0x00	; 0
	.db #0x00	; 0
	.db #0x41	; 65	'A'
	.db #0x22	; 34
	.db #0x1c	; 28
	.db #0x00	; 0
	.db #0x14	; 20
	.db #0x08	; 8
	.db #0x3e	; 62
	.db #0x08	; 8
	.db #0x14	; 20
	.db #0x08	; 8
	.db #0x08	; 8
	.db #0x3e	; 62
	.db #0x08	; 8
	.db #0x08	; 8
	.db #0x00	; 0
	.db #0x00	; 0
	.db #0x50	; 80	'P'
	.db #0x30	; 48	'0'
	.db #0x00	; 0
	.db #0x10	; 16
	.db #0x10	; 16
	.db #0x10	; 16
	.db #0x10	; 16
	.db #0x10	; 16
	.db #0x00	; 0
	.db #0x60	; 96
	.db #0x60	; 96
	.db #0x00	; 0
	.db #0x00	; 0
	.db #0x20	; 32
	.db #0x10	; 16
	.db #0x08	; 8
	.db #0x04	; 4
	.db #0x02	; 2
	.db #0x3e	; 62
	.db #0x51	; 81	'Q'
	.db #0x49	; 73	'I'
	.db #0x45	; 69	'E'
	.db #0x3e	; 62
	.db #0x00	; 0
	.db #0x42	; 66	'B'
	.db #0x7f	; 127
	.db #0x40	; 64
	.db #0x00	; 0
	.db #0x42	; 66	'B'
	.db #0x61	; 97	'a'
	.db #0x51	; 81	'Q'
	.db #0x49	; 73	'I'
	.db #0x46	; 70	'F'
	.db #0x21	; 33
	.db #0x41	; 65	'A'
	.db #0x45	; 69	'E'
	.db #0x4b	; 75	'K'
	.db #0x31	; 49	'1'
	.db #0x18	; 24
	.db #0x14	; 20
	.db #0x12	; 18
	.db #0x7f	; 127
	.db #0x10	; 16
	.db #0x27	; 39
	.db #0x45	; 69	'E'
	.db #0x45	; 69	'E'
	.db #0x45	; 69	'E'
	.db #0x39	; 57	'9'
	.db #0x3c	; 60
	.db #0x4a	; 74	'J'
	.db #0x49	; 73	'I'
	.db #0x49	; 73	'I'
	.db #0x30	; 48	'0'
	.db #0x01	; 1
	.db #0x71	; 113	'q'
	.db #0x09	; 9
	.db #0x05	; 5
	.db #0x03	; 3
	.db #0x36	; 54	'6'
	.db #0x49	; 73	'I'
	.db #0x49	; 73	'I'
	.db #0x49	; 73	'I'
	.db #0x36	; 54	'6'
	.db #0x06	; 6
	.db #0x49	; 73	'I'
	.db #0x49	; 73	'I'
	.db #0x29	; 41
	.db #0x1e	; 30
	.db #0x00	; 0
	.db #0x36	; 54	'6'
	.db #0x36	; 54	'6'
	.db #0x00	; 0
	.db #0x00	; 0
	.db #0x00	; 0
	.db #0x56	; 86	'V'
	.db #0x36	; 54	'6'
	.db #0x00	; 0
	.db #0x00	; 0
	.db #0x08	; 8
	.db #0x14	; 20
	.db #0x22	; 34
	.db #0x41	; 65	'A'
	.db #0x00	; 0
	.db #0x14	; 20
	.db #0x14	; 20
	.db #0x14	; 20
	.db #0x14	; 20
	.db #0x14	; 20
	.db #0x00	; 0
	.db #0x41	; 65	'A'
	.db #0x22	; 34
	.db #0x14	; 20
	.db #0x08	; 8
	.db #0x02	; 2
	.db #0x01	; 1
	.db #0x51	; 81	'Q'
	.db #0x09	; 9
	.db #0x06	; 6
	.db #0x32	; 50	'2'
	.db #0x49	; 73	'I'
	.db #0x79	; 121	'y'
	.db #0x41	; 65	'A'
	.db #0x3e	; 62
	.db #0x7e	; 126
	.db #0x11	; 17
	.db #0x11	; 17
	.db #0x11	; 17
	.db #0x7e	; 126
	.db #0x7f	; 127
	.db #0x49	; 73	'I'
	.db #0x49	; 73	'I'
	.db #0x49	; 73	'I'
	.db #0x36	; 54	'6'
	.db #0x3e	; 62
	.db #0x41	; 65	'A'
	.db #0x41	; 65	'A'
	.db #0x41	; 65	'A'
	.db #0x22	; 34
	.db #0x7f	; 127
	.db #0x41	; 65	'A'
	.db #0x41	; 65	'A'
	.db #0x22	; 34
	.db #0x1c	; 28
	.db #0x7f	; 127
	.db #0x49	; 73	'I'
	.db #0x49	; 73	'I'
	.db #0x49	; 73	'I'
	.db #0x41	; 65	'A'
	.db #0x7f	; 127
	.db #0x09	; 9
	.db #0x09	; 9
	.db #0x09	; 9
	.db #0x01	; 1
	.db #0x3e	; 62
	.db #0x41	; 65	'A'
	.db #0x49	; 73	'I'
	.db #0x49	; 73	'I'
	.db #0x7a	; 122	'z'
	.db #0x7f	; 127
	.db #0x08	; 8
	.db #0x08	; 8
	.db #0x08	; 8
	.db #0x7f	; 127
	.db #0x00	; 0
	.db #0x41	; 65	'A'
	.db #0x7f	; 127
	.db #0x41	; 65	'A'
	.db #0x00	; 0
	.db #0x20	; 32
	.db #0x40	; 64
	.db #0x41	; 65	'A'
	.db #0x3f	; 63
	.db #0x01	; 1
	.db #0x7f	; 127
	.db #0x08	; 8
	.db #0x14	; 20
	.db #0x22	; 34
	.db #0x41	; 65	'A'
	.db #0x7f	; 127
	.db #0x40	; 64
	.db #0x40	; 64
	.db #0x40	; 64
	.db #0x40	; 64
	.db #0x7f	; 127
	.db #0x02	; 2
	.db #0x0c	; 12
	.db #0x02	; 2
	.db #0x7f	; 127
	.db #0x7f	; 127
	.db #0x04	; 4
	.db #0x08	; 8
	.db #0x10	; 16
	.db #0x7f	; 127
	.db #0x3e	; 62
	.db #0x41	; 65	'A'
	.db #0x41	; 65	'A'
	.db #0x41	; 65	'A'
	.db #0x3e	; 62
	.db #0x7f	; 127
	.db #0x09	; 9
	.db #0x09	; 9
	.db #0x09	; 9
	.db #0x06	; 6
	.db #0x3e	; 62
	.db #0x41	; 65	'A'
	.db #0x51	; 81	'Q'
	.db #0x21	; 33
	.db #0x5e	; 94
	.db #0x7f	; 127
	.db #0x09	; 9
	.db #0x19	; 25
	.db #0x29	; 41
	.db #0x46	; 70	'F'
	.db #0x46	; 70	'F'
	.db #0x49	; 73	'I'
	.db #0x49	; 73	'I'
	.db #0x49	; 73	'I'
	.db #0x31	; 49	'1'
	.db #0x01	; 1
	.db #0x01	; 1
	.db #0x7f	; 127
	.db #0x01	; 1
	.db #0x01	; 1
	.db #0x3f	; 63
	.db #0x40	; 64
	.db #0x40	; 64
	.db #0x40	; 64
	.db #0x3f	; 63
	.db #0x1f	; 31
	.db #0x20	; 32
	.db #0x40	; 64
	.db #0x20	; 32
	.db #0x1f	; 31
	.db #0x3f	; 63
	.db #0x40	; 64
	.db #0x38	; 56	'8'
	.db #0x40	; 64
	.db #0x3f	; 63
	.db #0x63	; 99	'c'
	.db #0x14	; 20
	.db #0x08	; 8
	.db #0x14	; 20
	.db #0x63	; 99	'c'
	.db #0x07	; 7
	.db #0x08	; 8
	.db #0x70	; 112	'p'
	.db #0x08	; 8
	.db #0x07	; 7
	.db #0x61	; 97	'a'
	.db #0x51	; 81	'Q'
	.db #0x49	; 73	'I'
	.db #0x45	; 69	'E'
	.db #0x43	; 67	'C'
	.db #0x00	; 0
	.db #0x7f	; 127
	.db #0x41	; 65	'A'
	.db #0x41	; 65	'A'
	.db #0x00	; 0
	.db #0x02	; 2
	.db #0x04	; 4
	.db #0x08	; 8
	.db #0x10	; 16
	.db #0x20	; 32
	.db #0x00	; 0
	.db #0x41	; 65	'A'
	.db #0x41	; 65	'A'
	.db #0x7f	; 127
	.db #0x00	; 0
	.db #0x04	; 4
	.db #0x02	; 2
	.db #0x01	; 1
	.db #0x02	; 2
	.db #0x04	; 4
	.db #0x40	; 64
	.db #0x40	; 64
	.db #0x40	; 64
	.db #0x40	; 64
	.db #0x40	; 64
	.db #0x00	; 0
	.db #0x01	; 1
	.db #0x02	; 2
	.db #0x04	; 4
	.db #0x00	; 0
	.db #0x20	; 32
	.db #0x54	; 84	'T'
	.db #0x54	; 84	'T'
	.db #0x54	; 84	'T'
	.db #0x78	; 120	'x'
	.db #0x7f	; 127
	.db #0x48	; 72	'H'
	.db #0x44	; 68	'D'
	.db #0x44	; 68	'D'
	.db #0x38	; 56	'8'
	.db #0x38	; 56	'8'
	.db #0x44	; 68	'D'
	.db #0x44	; 68	'D'
	.db #0x44	; 68	'D'
	.db #0x00	; 0
	.db #0x38	; 56	'8'
	.db #0x44	; 68	'D'
	.db #0x44	; 68	'D'
	.db #0x48	; 72	'H'
	.db #0x7f	; 127
	.db #0x38	; 56	'8'
	.db #0x54	; 84	'T'
	.db #0x54	; 84	'T'
	.db #0x54	; 84	'T'
	.db #0x18	; 24
	.db #0x08	; 8
	.db #0x7e	; 126
	.db #0x09	; 9
	.db #0x01	; 1
	.db #0x02	; 2
	.db #0x0c	; 12
	.db #0x52	; 82	'R'
	.db #0x52	; 82	'R'
	.db #0x52	; 82	'R'
	.db #0x3e	; 62
	.db #0x7f	; 127
	.db #0x08	; 8
	.db #0x04	; 4
	.db #0x04	; 4
	.db #0x78	; 120	'x'
	.db #0x00	; 0
	.db #0x44	; 68	'D'
	.db #0x7d	; 125
	.db #0x40	; 64
	.db #0x00	; 0
	.db #0x20	; 32
	.db #0x40	; 64
	.db #0x44	; 68	'D'
	.db #0x3d	; 61
	.db #0x00	; 0
	.db #0x7f	; 127
	.db #0x10	; 16
	.db #0x28	; 40
	.db #0x44	; 68	'D'
	.db #0x00	; 0
	.db #0x00	; 0
	.db #0x41	; 65	'A'
	.db #0x7f	; 127
	.db #0x40	; 64
	.db #0x00	; 0
	.db #0x7c	; 124
	.db #0x04	; 4
	.db #0x18	; 24
	.db #0x04	; 4
	.db #0x78	; 120	'x'
	.db #0x7c	; 124
	.db #0x08	; 8
	.db #0x04	; 4
	.db #0x04	; 4
	.db #0x78	; 120	'x'
	.db #0x38	; 56	'8'
	.db #0x44	; 68	'D'
	.db #0x44	; 68	'D'
	.db #0x44	; 68	'D'
	.db #0x38	; 56	'8'
	.db #0x7c	; 124
	.db #0x14	; 20
	.db #0x14	; 20
	.db #0x14	; 20
	.db #0x08	; 8
	.db #0x08	; 8
	.db #0x14	; 20
	.db #0x14	; 20
	.db #0x18	; 24
	.db #0x7c	; 124
	.db #0x7c	; 124
	.db #0x08	; 8
	.db #0x04	; 4
	.db #0x04	; 4
	.db #0x08	; 8
	.db #0x48	; 72	'H'
	.db #0x54	; 84	'T'
	.db #0x54	; 84	'T'
	.db #0x54	; 84	'T'
	.db #0x20	; 32
	.db #0x04	; 4
	.db #0x3f	; 63
	.db #0x44	; 68	'D'
	.db #0x40	; 64
	.db #0x20	; 32
	.db #0x3c	; 60
	.db #0x40	; 64
	.db #0x40	; 64
	.db #0x20	; 32
	.db #0x7c	; 124
	.db #0x1c	; 28
	.db #0x20	; 32
	.db #0x40	; 64
	.db #0x20	; 32
	.db #0x1c	; 28
	.db #0x3c	; 60
	.db #0x40	; 64
	.db #0x30	; 48	'0'
	.db #0x40	; 64
	.db #0x3c	; 60
	.db #0x44	; 68	'D'
	.db #0x28	; 40
	.db #0x10	; 16
	.db #0x28	; 40
	.db #0x44	; 68	'D'
	.db #0x0c	; 12
	.db #0x50	; 80	'P'
	.db #0x50	; 80	'P'
	.db #0x50	; 80	'P'
	.db #0x3c	; 60
	.db #0x44	; 68	'D'
	.db #0x64	; 100	'd'
	.db #0x54	; 84	'T'
	.db #0x4c	; 76	'L'
	.db #0x44	; 68	'D'
	.db #0x00	; 0
	.db #0x08	; 8
	.db #0x36	; 54	'6'
	.db #0x41	; 65	'A'
	.db #0x00	; 0
	.db #0x00	; 0
	.db #0x00	; 0
	.db #0x7f	; 127
	.db #0x00	; 0
	.db #0x00	; 0
	.db #0x00	; 0
	.db #0x41	; 65	'A'
	.db #0x36	; 54	'6'
	.db #0x08	; 8
	.db #0x00	; 0
	.db #0x08	; 8
	.db #0x04	; 4
	.db #0x08	; 8
	.db #0x10	; 16
	.db #0x08	; 8
	.db #0x06	; 6
	.db #0x09	; 9
	.db #0x09	; 9
	.db #0x06	; 6
	.db #0x00	; 0
	.db #0x7c	; 124
	.db #0x12	; 18
	.db #0x11	; 17
	.db #0x12	; 18
	.db #0x7c	; 124
	.db #0x7f	; 127
	.db #0x49	; 73	'I'
	.db #0x49	; 73	'I'
	.db #0x49	; 73	'I'
	.db #0x31	; 49	'1'
	.db #0x7f	; 127
	.db #0x49	; 73	'I'
	.db #0x49	; 73	'I'
	.db #0x49	; 73	'I'
	.db #0x36	; 54	'6'
	.db #0x7f	; 127
	.db #0x01	; 1
	.db #0x01	; 1
	.db #0x01	; 1
	.db #0x01	; 1
	.db #0x60	; 96
	.db #0x3f	; 63
	.db #0x21	; 33
	.db #0x3f	; 63
	.db #0x60	; 96
	.db #0x7f	; 127
	.db #0x49	; 73	'I'
	.db #0x49	; 73	'I'
	.db #0x49	; 73	'I'
	.db #0x41	; 65	'A'
	.db #0x77	; 119	'w'
	.db #0x08	; 8
	.db #0x7f	; 127
	.db #0x08	; 8
	.db #0x77	; 119	'w'
	.db #0x22	; 34
	.db #0x41	; 65	'A'
	.db #0x49	; 73	'I'
	.db #0x49	; 73	'I'
	.db #0x36	; 54	'6'
	.db #0x7f	; 127
	.db #0x10	; 16
	.db #0x08	; 8
	.db #0x04	; 4
	.db #0x7f	; 127
	.db #0x7e	; 126
	.db #0x10	; 16
	.db #0x09	; 9
	.db #0x04	; 4
	.db #0x7e	; 126
	.db #0x7f	; 127
	.db #0x08	; 8
	.db #0x14	; 20
	.db #0x22	; 34
	.db #0x41	; 65	'A'
	.db #0x40	; 64
	.db #0x3e	; 62
	.db #0x01	; 1
	.db #0x01	; 1
	.db #0x7f	; 127
	.db #0x7f	; 127
	.db #0x02	; 2
	.db #0x0c	; 12
	.db #0x02	; 2
	.db #0x7f	; 127
	.db #0x7f	; 127
	.db #0x08	; 8
	.db #0x08	; 8
	.db #0x08	; 8
	.db #0x7f	; 127
	.db #0x3e	; 62
	.db #0x41	; 65	'A'
	.db #0x41	; 65	'A'
	.db #0x41	; 65	'A'
	.db #0x3e	; 62
	.db #0x7f	; 127
	.db #0x01	; 1
	.db #0x01	; 1
	.db #0x01	; 1
	.db #0x7f	; 127
	.db #0x7f	; 127
	.db #0x09	; 9
	.db #0x09	; 9
	.db #0x09	; 9
	.db #0x06	; 6
	.db #0x3e	; 62
	.db #0x41	; 65	'A'
	.db #0x41	; 65	'A'
	.db #0x41	; 65	'A'
	.db #0x22	; 34
	.db #0x01	; 1
	.db #0x01	; 1
	.db #0x7f	; 127
	.db #0x01	; 1
	.db #0x01	; 1
	.db #0x07	; 7
	.db #0x48	; 72	'H'
	.db #0x48	; 72	'H'
	.db #0x48	; 72	'H'
	.db #0x3f	; 63
	.db #0x0e	; 14
	.db #0x11	; 17
	.db #0x7f	; 127
	.db #0x11	; 17
	.db #0x0e	; 14
	.db #0x63	; 99	'c'
	.db #0x14	; 20
	.db #0x08	; 8
	.db #0x14	; 20
	.db #0x63	; 99	'c'
	.db #0x3f	; 63
	.db #0x20	; 32
	.db #0x20	; 32
	.db #0x3f	; 63
	.db #0x60	; 96
	.db #0x07	; 7
	.db #0x08	; 8
	.db #0x08	; 8
	.db #0x08	; 8
	.db #0x7f	; 127
	.db #0x7f	; 127
	.db #0x40	; 64
	.db #0x7e	; 126
	.db #0x40	; 64
	.db #0x7f	; 127
	.db #0x3f	; 63
	.db #0x20	; 32
	.db #0x3f	; 63
	.db #0x20	; 32
	.db #0x7f	; 127
	.db #0x01	; 1
	.db #0x7f	; 127
	.db #0x48	; 72	'H'
	.db #0x48	; 72	'H'
	.db #0x30	; 48	'0'
	.db #0x7f	; 127
	.db #0x48	; 72	'H'
	.db #0x30	; 48	'0'
	.db #0x00	; 0
	.db #0x7f	; 127
	.db #0x00	; 0
	.db #0x7f	; 127
	.db #0x48	; 72	'H'
	.db #0x48	; 72	'H'
	.db #0x30	; 48	'0'
	.db #0x22	; 34
	.db #0x41	; 65	'A'
	.db #0x49	; 73	'I'
	.db #0x49	; 73	'I'
	.db #0x3e	; 62
	.db #0x7f	; 127
	.db #0x08	; 8
	.db #0x3e	; 62
	.db #0x41	; 65	'A'
	.db #0x3e	; 62
	.db #0x46	; 70	'F'
	.db #0x29	; 41
	.db #0x19	; 25
	.db #0x09	; 9
	.db #0x7f	; 127
	.db #0x20	; 32
	.db #0x54	; 84	'T'
	.db #0x54	; 84	'T'
	.db #0x54	; 84	'T'
	.db #0x78	; 120	'x'
	.db #0x3c	; 60
	.db #0x4a	; 74	'J'
	.db #0x4a	; 74	'J'
	.db #0x4a	; 74	'J'
	.db #0x31	; 49	'1'
	.db #0x7c	; 124
	.db #0x54	; 84	'T'
	.db #0x54	; 84	'T'
	.db #0x28	; 40
	.db #0x00	; 0
	.db #0x7c	; 124
	.db #0x04	; 4
	.db #0x04	; 4
	.db #0x0c	; 12
	.db #0x00	; 0
	.db #0x60	; 96
	.db #0x3c	; 60
	.db #0x24	; 36
	.db #0x3c	; 60
	.db #0x60	; 96
	.db #0x38	; 56	'8'
	.db #0x54	; 84	'T'
	.db #0x54	; 84	'T'
	.db #0x54	; 84	'T'
	.db #0x18	; 24
	.db #0x6c	; 108	'l'
	.db #0x10	; 16
	.db #0x7c	; 124
	.db #0x10	; 16
	.db #0x6c	; 108	'l'
	.db #0x00	; 0
	.db #0x44	; 68	'D'
	.db #0x54	; 84	'T'
	.db #0x54	; 84	'T'
	.db #0x28	; 40
	.db #0x7c	; 124
	.db #0x20	; 32
	.db #0x10	; 16
	.db #0x08	; 8
	.db #0x7c	; 124
	.db #0x7c	; 124
	.db #0x21	; 33
	.db #0x12	; 18
	.db #0x09	; 9
	.db #0x7c	; 124
	.db #0x7c	; 124
	.db #0x10	; 16
	.db #0x28	; 40
	.db #0x44	; 68	'D'
	.db #0x00	; 0
	.db #0x40	; 64
	.db #0x38	; 56	'8'
	.db #0x04	; 4
	.db #0x04	; 4
	.db #0x7c	; 124
	.db #0x7c	; 124
	.db #0x08	; 8
	.db #0x10	; 16
	.db #0x08	; 8
	.db #0x7c	; 124
	.db #0x7c	; 124
	.db #0x10	; 16
	.db #0x10	; 16
	.db #0x10	; 16
	.db #0x7c	; 124
	.db #0x38	; 56	'8'
	.db #0x44	; 68	'D'
	.db #0x44	; 68	'D'
	.db #0x44	; 68	'D'
	.db #0x38	; 56	'8'
	.db #0x7c	; 124
	.db #0x04	; 4
	.db #0x04	; 4
	.db #0x04	; 4
	.db #0x7c	; 124
	.db #0x7c	; 124
	.db #0x14	; 20
	.db #0x14	; 20
	.db #0x14	; 20
	.db #0x08	; 8
	.db #0x38	; 56	'8'
	.db #0x44	; 68	'D'
	.db #0x44	; 68	'D'
	.db #0x44	; 68	'D'
	.db #0x00	; 0
	.db #0x04	; 4
	.db #0x04	; 4
	.db #0x7c	; 124
	.db #0x04	; 4
	.db #0x04	; 4
	.db #0x0c	; 12
	.db #0x50	; 80	'P'
	.db #0x50	; 80	'P'
	.db #0x50	; 80	'P'
	.db #0x3c	; 60
	.db #0x08	; 8
	.db #0x14	; 20
	.db #0x7c	; 124
	.db #0x14	; 20
	.db #0x08	; 8
	.db #0x44	; 68	'D'
	.db #0x28	; 40
	.db #0x10	; 16
	.db #0x28	; 40
	.db #0x44	; 68	'D'
	.db #0x3c	; 60
	.db #0x20	; 32
	.db #0x20	; 32
	.db #0x3c	; 60
	.db #0x60	; 96
	.db #0x0c	; 12
	.db #0x10	; 16
	.db #0x10	; 16
	.db #0x10	; 16
	.db #0x7c	; 124
	.db #0x7c	; 124
	.db #0x40	; 64
	.db #0x7c	; 124
	.db #0x40	; 64
	.db #0x7c	; 124
	.db #0x3c	; 60
	.db #0x20	; 32
	.db #0x3c	; 60
	.db #0x20	; 32
	.db #0x7c	; 124
	.db #0x04	; 4
	.db #0x7c	; 124
	.db #0x50	; 80	'P'
	.db #0x50	; 80	'P'
	.db #0x20	; 32
	.db #0x7c	; 124
	.db #0x50	; 80	'P'
	.db #0x20	; 32
	.db #0x00	; 0
	.db #0x7c	; 124
	.db #0x00	; 0
	.db #0x7c	; 124
	.db #0x50	; 80	'P'
	.db #0x50	; 80	'P'
	.db #0x20	; 32
	.db #0x28	; 40
	.db #0x44	; 68	'D'
	.db #0x54	; 84	'T'
	.db #0x54	; 84	'T'
	.db #0x38	; 56	'8'
	.db #0x7c	; 124
	.db #0x10	; 16
	.db #0x38	; 56	'8'
	.db #0x44	; 68	'D'
	.db #0x38	; 56	'8'
	.db #0x48	; 72	'H'
	.db #0x54	; 84	'T'
	.db #0x34	; 52	'4'
	.db #0x14	; 20
	.db #0x7c	; 124
_BigNumbers:
	.db #0xfc	; 252
	.db #0x7a	; 122	'z'
	.db #0x06	; 6
	.db #0x06	; 6
	.db #0x06	; 6
	.db #0x06	; 6
	.db #0x06	; 6
	.db #0x06	; 6
	.db #0x7a	; 122	'z'
	.db #0xfc	; 252
	.db #0x7e	; 126
	.db #0xbc	; 188
	.db #0xc0	; 192
	.db #0xc0	; 192
	.db #0xc0	; 192
	.db #0xc0	; 192
	.db #0xc0	; 192
	.db #0xc0	; 192
	.db #0xbc	; 188
	.db #0x7e	; 126
	.db #0x00	; 0
	.db #0x00	; 0
	.db #0x00	; 0
	.db #0x00	; 0
	.db #0x00	; 0
	.db #0x00	; 0
	.db #0x00	; 0
	.db #0x00	; 0
	.db #0x78	; 120	'x'
	.db #0xfc	; 252
	.db #0x00	; 0
	.db #0x00	; 0
	.db #0x00	; 0
	.db #0x00	; 0
	.db #0x00	; 0
	.db #0x00	; 0
	.db #0x00	; 0
	.db #0x00	; 0
	.db #0x3c	; 60
	.db #0x7e	; 126
	.db #0x00	; 0
	.db #0x02	; 2
	.db #0x86	; 134
	.db #0x86	; 134
	.db #0x86	; 134
	.db #0x86	; 134
	.db #0x86	; 134
	.db #0x86	; 134
	.db #0x7a	; 122	'z'
	.db #0xfc	; 252
	.db #0x7e	; 126
	.db #0xbd	; 189
	.db #0xc3	; 195
	.db #0xc3	; 195
	.db #0xc3	; 195
	.db #0xc3	; 195
	.db #0xc3	; 195
	.db #0xc3	; 195
	.db #0x81	; 129
	.db #0x00	; 0
	.db #0x00	; 0
	.db #0x02	; 2
	.db #0x86	; 134
	.db #0x86	; 134
	.db #0x86	; 134
	.db #0x86	; 134
	.db #0x86	; 134
	.db #0x86	; 134
	.db #0x7a	; 122	'z'
	.db #0xfc	; 252
	.db #0x00	; 0
	.db #0x81	; 129
	.db #0xc3	; 195
	.db #0xc3	; 195
	.db #0xc3	; 195
	.db #0xc3	; 195
	.db #0xc3	; 195
	.db #0xc3	; 195
	.db #0xbd	; 189
	.db #0x7e	; 126
	.db #0xfc	; 252
	.db #0x78	; 120	'x'
	.db #0x80	; 128
	.db #0x80	; 128
	.db #0x80	; 128
	.db #0x80	; 128
	.db #0x80	; 128
	.db #0x80	; 128
	.db #0x78	; 120	'x'
	.db #0xfc	; 252
	.db #0x00	; 0
	.db #0x01	; 1
	.db #0x03	; 3
	.db #0x03	; 3
	.db #0x03	; 3
	.db #0x03	; 3
	.db #0x03	; 3
	.db #0x03	; 3
	.db #0x3d	; 61
	.db #0x7e	; 126
	.db #0xfc	; 252
	.db #0x7a	; 122	'z'
	.db #0x86	; 134
	.db #0x86	; 134
	.db #0x86	; 134
	.db #0x86	; 134
	.db #0x86	; 134
	.db #0x86	; 134
	.db #0x02	; 2
	.db #0x00	; 0
	.db #0x00	; 0
	.db #0x81	; 129
	.db #0xc3	; 195
	.db #0xc3	; 195
	.db #0xc3	; 195
	.db #0xc3	; 195
	.db #0xc3	; 195
	.db #0xc3	; 195
	.db #0xbd	; 189
	.db #0x7e	; 126
	.db #0xfc	; 252
	.db #0x7a	; 122	'z'
	.db #0x86	; 134
	.db #0x86	; 134
	.db #0x86	; 134
	.db #0x86	; 134
	.db #0x86	; 134
	.db #0x86	; 134
	.db #0x02	; 2
	.db #0x00	; 0
	.db #0x7e	; 126
	.db #0xbd	; 189
	.db #0xc3	; 195
	.db #0xc3	; 195
	.db #0xc3	; 195
	.db #0xc3	; 195
	.db #0xc3	; 195
	.db #0xc3	; 195
	.db #0xbd	; 189
	.db #0x7e	; 126
	.db #0x00	; 0
	.db #0x02	; 2
	.db #0x06	; 6
	.db #0x06	; 6
	.db #0x06	; 6
	.db #0x06	; 6
	.db #0x06	; 6
	.db #0x06	; 6
	.db #0x7a	; 122	'z'
	.db #0xfc	; 252
	.db #0x00	; 0
	.db #0x00	; 0
	.db #0x00	; 0
	.db #0x00	; 0
	.db #0x00	; 0
	.db #0x00	; 0
	.db #0x00	; 0
	.db #0x00	; 0
	.db #0x3c	; 60
	.db #0x7e	; 126
	.db #0xfc	; 252
	.db #0x7a	; 122	'z'
	.db #0x86	; 134
	.db #0x86	; 134
	.db #0x86	; 134
	.db #0x86	; 134
	.db #0x86	; 134
	.db #0x86	; 134
	.db #0x7a	; 122	'z'
	.db #0xfc	; 252
	.db #0x7e	; 126
	.db #0xbd	; 189
	.db #0xc3	; 195
	.db #0xc3	; 195
	.db #0xc3	; 195
	.db #0xc3	; 195
	.db #0xc3	; 195
	.db #0xc3	; 195
	.db #0xbd	; 189
	.db #0x7e	; 126
	.db #0xfc	; 252
	.db #0x7a	; 122	'z'
	.db #0x86	; 134
	.db #0x86	; 134
	.db #0x86	; 134
	.db #0x86	; 134
	.db #0x86	; 134
	.db #0x86	; 134
	.db #0x7a	; 122	'z'
	.db #0xfc	; 252
	.db #0x00	; 0
	.db #0x81	; 129
	.db #0xc3	; 195
	.db #0xc3	; 195
	.db #0xc3	; 195
	.db #0xc3	; 195
	.db #0xc3	; 195
	.db #0xc3	; 195
	.db #0xbd	; 189
	.db #0x7e	; 126
_LargeNumbers:
	.db #0x00	; 0
	.db #0xfc	; 252
	.db #0xf8	; 248
	.db #0xf2	; 242
	.db #0xe6	; 230
	.db #0xce	; 206
	.db #0x1e	; 30
	.db #0x3e	; 62
	.db #0x3e	; 62
	.db #0x3e	; 62
	.db #0x3e	; 62
	.db #0x3e	; 62
	.db #0x3e	; 62
	.db #0x3e	; 62
	.db #0x1e	; 30
	.db #0xce	; 206
	.db #0xe6	; 230
	.db #0xf2	; 242
	.db #0xf8	; 248
	.db #0xfc	; 252
	.db #0x00	; 0
	.db #0xff	; 255
	.db #0x7f	; 127
	.db #0x3f	; 63
	.db #0x1f	; 31
	.db #0x0f	; 15
	.db #0x00	; 0
	.db #0x00	; 0
	.db #0x00	; 0
	.db #0x00	; 0
	.db #0x00	; 0
	.db #0x00	; 0
	.db #0x00	; 0
	.db #0x00	; 0
	.db #0x00	; 0
	.db #0x0f	; 15
	.db #0x1f	; 31
	.db #0x3f	; 63
	.db #0x7f	; 127
	.db #0xff	; 255
	.db #0x00	; 0
	.db #0xfe	; 254
	.db #0xfc	; 252
	.db #0xf8	; 248
	.db #0xf0	; 240
	.db #0xe0	; 224
	.db #0x00	; 0
	.db #0x00	; 0
	.db #0x00	; 0
	.db #0x00	; 0
	.db #0x00	; 0
	.db #0x00	; 0
	.db #0x00	; 0
	.db #0x00	; 0
	.db #0x00	; 0
	.db #0xe0	; 224
	.db #0xf0	; 240
	.db #0xf8	; 248
	.db #0xfc	; 252
	.db #0xfe	; 254
	.db #0x00	; 0
	.db #0x7f	; 127
	.db #0x3f	; 63
	.db #0x9f	; 159
	.db #0xcf	; 207
	.db #0xe7	; 231
	.db #0xf0	; 240
	.db #0xf8	; 248
	.db #0xf8	; 248
	.db #0xf8	; 248
	.db #0xf8	; 248
	.db #0xf8	; 248
	.db #0xf8	; 248
	.db #0xf8	; 248
	.db #0xf0	; 240
	.db #0xe7	; 231
	.db #0xcf	; 207
	.db #0x9f	; 159
	.db #0x3f	; 63
	.db #0x7f	; 127
	.db #0x00	; 0
	.db #0x00	; 0
	.db #0x00	; 0
	.db #0x00	; 0
	.db #0x00	; 0
	.db #0x00	; 0
	.db #0x00	; 0
	.db #0x00	; 0
	.db #0x00	; 0
	.db #0x00	; 0
	.db #0x00	; 0
	.db #0x00	; 0
	.db #0x00	; 0
	.db #0x00	; 0
	.db #0x00	; 0
	.db #0xc0	; 192
	.db #0xe0	; 224
	.db #0xf0	; 240
	.db #0xf8	; 248
	.db #0xfc	; 252
	.db #0x00	; 0
	.db #0x00	; 0
	.db #0x00	; 0
	.db #0x00	; 0
	.db #0x00	; 0
	.db #0x00	; 0
	.db #0x00	; 0
	.db #0x00	; 0
	.db #0x00	; 0
	.db #0x00	; 0
	.db #0x00	; 0
	.db #0x00	; 0
	.db #0x00	; 0
	.db #0x00	; 0
	.db #0x00	; 0
	.db #0x0f	; 15
	.db #0x1f	; 31
	.db #0x3f	; 63
	.db #0x7f	; 127
	.db #0xff	; 255
	.db #0x00	; 0
	.db #0x00	; 0
	.db #0x00	; 0
	.db #0x00	; 0
	.db #0x00	; 0
	.db #0x00	; 0
	.db #0x00	; 0
	.db #0x00	; 0
	.db #0x00	; 0
	.db #0x00	; 0
	.db #0x00	; 0
	.db #0x00	; 0
	.db #0x00	; 0
	.db #0x00	; 0
	.db #0x00	; 0
	.db #0xe0	; 224
	.db #0xf0	; 240
	.db #0xf8	; 248
	.db #0xfc	; 252
	.db #0xfe	; 254
	.db #0x00	; 0
	.db #0x00	; 0
	.db #0x00	; 0
	.db #0x00	; 0
	.db #0x00	; 0
	.db #0x00	; 0
	.db #0x00	; 0
	.db #0x00	; 0
	.db #0x00	; 0
	.db #0x00	; 0
	.db #0x00	; 0
	.db #0x00	; 0
	.db #0x00	; 0
	.db #0x00	; 0
	.db #0x00	; 0
	.db #0x07	; 7
	.db #0x0f	; 15
	.db #0x1f	; 31
	.db #0x3f	; 63
	.db #0x7f	; 127
	.db #0x00	; 0
	.db #0x00	; 0
	.db #0x00	; 0
	.db #0x02	; 2
	.db #0x06	; 6
	.db #0x0e	; 14
	.db #0x1e	; 30
	.db #0x3e	; 62
	.db #0x3e	; 62
	.db #0x3e	; 62
	.db #0x3e	; 62
	.db #0x3e	; 62
	.db #0x3e	; 62
	.db #0x3e	; 62
	.db #0x1e	; 30
	.db #0xce	; 206
	.db #0xe6	; 230
	.db #0xf2	; 242
	.db #0xf8	; 248
	.db #0xfc	; 252
	.db #0x00	; 0
	.db #0x00	; 0
	.db #0x00	; 0
	.db #0x80	; 128
	.db #0xc0	; 192
	.db #0xc0	; 192
	.db #0xc0	; 192
	.db #0xc0	; 192
	.db #0xc0	; 192
	.db #0xc0	; 192
	.db #0xc0	; 192
	.db #0xc0	; 192
	.db #0xc0	; 192
	.db #0xc0	; 192
	.db #0xc0	; 192
	.db #0xc7	; 199
	.db #0xcf	; 207
	.db #0x9f	; 159
	.db #0x3f	; 63
	.db #0x7f	; 127
	.db #0x00	; 0
	.db #0xfc	; 252
	.db #0xf9	; 249
	.db #0xf3	; 243
	.db #0xe7	; 231
	.db #0xc7	; 199
	.db #0x07	; 7
	.db #0x07	; 7
	.db #0x07	; 7
	.db #0x07	; 7
	.db #0x07	; 7
	.db #0x07	; 7
	.db #0x07	; 7
	.db #0x07	; 7
	.db #0x07	; 7
	.db #0x07	; 7
	.db #0x07	; 7
	.db #0x03	; 3
	.db #0x01	; 1
	.db #0x00	; 0
	.db #0x00	; 0
	.db #0x7f	; 127
	.db #0x3f	; 63
	.db #0x9f	; 159
	.db #0xcf	; 207
	.db #0xe7	; 231
	.db #0xf0	; 240
	.db #0xf0	; 240
	.db #0xf8	; 248
	.db #0xf8	; 248
	.db #0xf8	; 248
	.db #0xf8	; 248
	.db #0xf8	; 248
	.db #0xf8	; 248
	.db #0xf0	; 240
	.db #0xe0	; 224
	.db #0xc0	; 192
	.db #0x80	; 128
	.db #0x00	; 0
	.db #0x00	; 0
	.db #0x00	; 0
	.db #0x00	; 0
	.db #0x00	; 0
	.db #0x02	; 2
	.db #0x06	; 6
	.db #0x0e	; 14
	.db #0x1e	; 30
	.db #0x3e	; 62
	.db #0x3e	; 62
	.db #0x3e	; 62
	.db #0x3e	; 62
	.db #0x3e	; 62
	.db #0x3e	; 62
	.db #0x3e	; 62
	.db #0x1e	; 30
	.db #0xce	; 206
	.db #0xe6	; 230
	.db #0xf2	; 242
	.db #0xf8	; 248
	.db #0xfc	; 252
	.db #0x00	; 0
	.db #0x00	; 0
	.db #0x00	; 0
	.db #0x80	; 128
	.db #0xc0	; 192
	.db #0xc0	; 192
	.db #0xc0	; 192
	.db #0xc0	; 192
	.db #0xc0	; 192
	.db #0xc0	; 192
	.db #0xc0	; 192
	.db #0xc0	; 192
	.db #0xc0	; 192
	.db #0xc0	; 192
	.db #0xc0	; 192
	.db #0xc7	; 199
	.db #0xcf	; 207
	.db #0x9f	; 159
	.db #0x3f	; 63
	.db #0x7f	; 127
	.db #0x00	; 0
	.db #0x00	; 0
	.db #0x01	; 1
	.db #0x03	; 3
	.db #0x07	; 7
	.db #0x07	; 7
	.db #0x07	; 7
	.db #0x07	; 7
	.db #0x07	; 7
	.db #0x07	; 7
	.db #0x07	; 7
	.db #0x07	; 7
	.db #0x07	; 7
	.db #0x07	; 7
	.db #0x07	; 7
	.db #0xc7	; 199
	.db #0xe7	; 231
	.db #0xf3	; 243
	.db #0xf9	; 249
	.db #0xfc	; 252
	.db #0x00	; 0
	.db #0x00	; 0
	.db #0x00	; 0
	.db #0x80	; 128
	.db #0xc0	; 192
	.db #0xe0	; 224
	.db #0xf0	; 240
	.db #0xf0	; 240
	.db #0xf8	; 248
	.db #0xf8	; 248
	.db #0xf8	; 248
	.db #0xf8	; 248
	.db #0xf8	; 248
	.db #0xf8	; 248
	.db #0xf0	; 240
	.db #0xe7	; 231
	.db #0xcf	; 207
	.db #0x9f	; 159
	.db #0x3f	; 63
	.db #0x7f	; 127
	.db #0x00	; 0
	.db #0xfc	; 252
	.db #0xf8	; 248
	.db #0xf0	; 240
	.db #0xe0	; 224
	.db #0xc0	; 192
	.db #0x00	; 0
	.db #0x00	; 0
	.db #0x00	; 0
	.db #0x00	; 0
	.db #0x00	; 0
	.db #0x00	; 0
	.db #0x00	; 0
	.db #0x00	; 0
	.db #0x00	; 0
	.db #0xc0	; 192
	.db #0xe0	; 224
	.db #0xf0	; 240
	.db #0xf8	; 248
	.db #0xfc	; 252
	.db #0x00	; 0
	.db #0x7f	; 127
	.db #0x3f	; 63
	.db #0x9f	; 159
	.db #0xcf	; 207
	.db #0xc7	; 199
	.db #0xc0	; 192
	.db #0xc0	; 192
	.db #0xc0	; 192
	.db #0xc0	; 192
	.db #0xc0	; 192
	.db #0xc0	; 192
	.db #0xc0	; 192
	.db #0xc0	; 192
	.db #0xc0	; 192
	.db #0xc7	; 199
	.db #0xcf	; 207
	.db #0x9f	; 159
	.db #0x3f	; 63
	.db #0x7f	; 127
	.db #0x00	; 0
	.db #0x00	; 0
	.db #0x01	; 1
	.db #0x03	; 3
	.db #0x07	; 7
	.db #0x07	; 7
	.db #0x07	; 7
	.db #0x07	; 7
	.db #0x07	; 7
	.db #0x07	; 7
	.db #0x07	; 7
	.db #0x07	; 7
	.db #0x07	; 7
	.db #0x07	; 7
	.db #0x07	; 7
	.db #0xc7	; 199
	.db #0xe7	; 231
	.db #0xf3	; 243
	.db #0xf9	; 249
	.db #0xfc	; 252
	.db #0x00	; 0
	.db #0x00	; 0
	.db #0x00	; 0
	.db #0x00	; 0
	.db #0x00	; 0
	.db #0x00	; 0
	.db #0x00	; 0
	.db #0x00	; 0
	.db #0x00	; 0
	.db #0x00	; 0
	.db #0x00	; 0
	.db #0x00	; 0
	.db #0x00	; 0
	.db #0x00	; 0
	.db #0x00	; 0
	.db #0x07	; 7
	.db #0x0f	; 15
	.db #0x1f	; 31
	.db #0x3f	; 63
	.db #0x7f	; 127
	.db #0x00	; 0
	.db #0xfc	; 252
	.db #0xf8	; 248
	.db #0xf2	; 242
	.db #0xe6	; 230
	.db #0xce	; 206
	.db #0x1e	; 30
	.db #0x3e	; 62
	.db #0x3e	; 62
	.db #0x3e	; 62
	.db #0x3e	; 62
	.db #0x3e	; 62
	.db #0x3e	; 62
	.db #0x3e	; 62
	.db #0x1e	; 30
	.db #0x0e	; 14
	.db #0x06	; 6
	.db #0x02	; 2
	.db #0x00	; 0
	.db #0x00	; 0
	.db #0x00	; 0
	.db #0x7f	; 127
	.db #0x3f	; 63
	.db #0x9f	; 159
	.db #0xcf	; 207
	.db #0xc7	; 199
	.db #0xc0	; 192
	.db #0xc0	; 192
	.db #0xc0	; 192
	.db #0xc0	; 192
	.db #0xc0	; 192
	.db #0xc0	; 192
	.db #0xc0	; 192
	.db #0xc0	; 192
	.db #0xc0	; 192
	.db #0xc0	; 192
	.db #0xc0	; 192
	.db #0x80	; 128
	.db #0x00	; 0
	.db #0x00	; 0
	.db #0x00	; 0
	.db #0x00	; 0
	.db #0x01	; 1
	.db #0x03	; 3
	.db #0x07	; 7
	.db #0x07	; 7
	.db #0x07	; 7
	.db #0x07	; 7
	.db #0x07	; 7
	.db #0x07	; 7
	.db #0x07	; 7
	.db #0x07	; 7
	.db #0x07	; 7
	.db #0x07	; 7
	.db #0x07	; 7
	.db #0xc7	; 199
	.db #0xe7	; 231
	.db #0xf3	; 243
	.db #0xf9	; 249
	.db #0xfc	; 252
	.db #0x00	; 0
	.db #0x00	; 0
	.db #0x00	; 0
	.db #0x80	; 128
	.db #0xc0	; 192
	.db #0xe0	; 224
	.db #0xf0	; 240
	.db #0xf0	; 240
	.db #0xf8	; 248
	.db #0xf8	; 248
	.db #0xf8	; 248
	.db #0xf8	; 248
	.db #0xf8	; 248
	.db #0xf8	; 248
	.db #0xf0	; 240
	.db #0xe7	; 231
	.db #0xcf	; 207
	.db #0x9f	; 159
	.db #0x3f	; 63
	.db #0x7f	; 127
	.db #0x00	; 0
	.db #0xfc	; 252
	.db #0xf8	; 248
	.db #0xf2	; 242
	.db #0xe6	; 230
	.db #0xce	; 206
	.db #0x1e	; 30
	.db #0x3e	; 62
	.db #0x3e	; 62
	.db #0x3e	; 62
	.db #0x3e	; 62
	.db #0x3e	; 62
	.db #0x3e	; 62
	.db #0x3e	; 62
	.db #0x1e	; 30
	.db #0x0e	; 14
	.db #0x06	; 6
	.db #0x02	; 2
	.db #0x00	; 0
	.db #0x00	; 0
	.db #0x00	; 0
	.db #0x7f	; 127
	.db #0x3f	; 63
	.db #0x9f	; 159
	.db #0xcf	; 207
	.db #0xc7	; 199
	.db #0xc0	; 192
	.db #0xc0	; 192
	.db #0xc0	; 192
	.db #0xc0	; 192
	.db #0xc0	; 192
	.db #0xc0	; 192
	.db #0xc0	; 192
	.db #0xc0	; 192
	.db #0xc0	; 192
	.db #0xc0	; 192
	.db #0xc0	; 192
	.db #0x80	; 128
	.db #0x00	; 0
	.db #0x00	; 0
	.db #0x00	; 0
	.db #0xfc	; 252
	.db #0xf9	; 249
	.db #0xf3	; 243
	.db #0xe7	; 231
	.db #0xc7	; 199
	.db #0x07	; 7
	.db #0x07	; 7
	.db #0x07	; 7
	.db #0x07	; 7
	.db #0x07	; 7
	.db #0x07	; 7
	.db #0x07	; 7
	.db #0x07	; 7
	.db #0x07	; 7
	.db #0xc7	; 199
	.db #0xe7	; 231
	.db #0xf3	; 243
	.db #0xf9	; 249
	.db #0xfc	; 252
	.db #0x00	; 0
	.db #0x7f	; 127
	.db #0x3f	; 63
	.db #0x9f	; 159
	.db #0xcf	; 207
	.db #0xe7	; 231
	.db #0xf0	; 240
	.db #0xf0	; 240
	.db #0xf8	; 248
	.db #0xf8	; 248
	.db #0xf8	; 248
	.db #0xf8	; 248
	.db #0xf8	; 248
	.db #0xf8	; 248
	.db #0xf0	; 240
	.db #0xe7	; 231
	.db #0xcf	; 207
	.db #0x9f	; 159
	.db #0x3f	; 63
	.db #0x7f	; 127
	.db #0x00	; 0
	.db #0x00	; 0
	.db #0x00	; 0
	.db #0x02	; 2
	.db #0x06	; 6
	.db #0x0e	; 14
	.db #0x1e	; 30
	.db #0x3e	; 62
	.db #0x3e	; 62
	.db #0x3e	; 62
	.db #0x3e	; 62
	.db #0x3e	; 62
	.db #0x3e	; 62
	.db #0x3e	; 62
	.db #0x1e	; 30
	.db #0xce	; 206
	.db #0xe6	; 230
	.db #0xf2	; 242
	.db #0xf8	; 248
	.db #0xfc	; 252
	.db #0x00	; 0
	.db #0x00	; 0
	.db #0x00	; 0
	.db #0x00	; 0
	.db #0x00	; 0
	.db #0x00	; 0
	.db #0x00	; 0
	.db #0x00	; 0
	.db #0x00	; 0
	.db #0x00	; 0
	.db #0x00	; 0
	.db #0x00	; 0
	.db #0x00	; 0
	.db #0x00	; 0
	.db #0x00	; 0
	.db #0x0f	; 15
	.db #0x1f	; 31
	.db #0x3f	; 63
	.db #0x7f	; 127
	.db #0xff	; 255
	.db #0x00	; 0
	.db #0x00	; 0
	.db #0x00	; 0
	.db #0x00	; 0
	.db #0x00	; 0
	.db #0x00	; 0
	.db #0x00	; 0
	.db #0x00	; 0
	.db #0x00	; 0
	.db #0x00	; 0
	.db #0x00	; 0
	.db #0x00	; 0
	.db #0x00	; 0
	.db #0x00	; 0
	.db #0x00	; 0
	.db #0xe0	; 224
	.db #0xf0	; 240
	.db #0xf8	; 248
	.db #0xfc	; 252
	.db #0xfe	; 254
	.db #0x00	; 0
	.db #0x00	; 0
	.db #0x00	; 0
	.db #0x00	; 0
	.db #0x00	; 0
	.db #0x00	; 0
	.db #0x00	; 0
	.db #0x00	; 0
	.db #0x00	; 0
	.db #0x00	; 0
	.db #0x00	; 0
	.db #0x00	; 0
	.db #0x00	; 0
	.db #0x00	; 0
	.db #0x00	; 0
	.db #0x07	; 7
	.db #0x0f	; 15
	.db #0x1f	; 31
	.db #0x3f	; 63
	.db #0x7f	; 127
	.db #0x00	; 0
	.db #0xfc	; 252
	.db #0xf8	; 248
	.db #0xf2	; 242
	.db #0xe6	; 230
	.db #0xce	; 206
	.db #0x1e	; 30
	.db #0x3e	; 62
	.db #0x3e	; 62
	.db #0x3e	; 62
	.db #0x3e	; 62
	.db #0x3e	; 62
	.db #0x3e	; 62
	.db #0x3e	; 62
	.db #0x1e	; 30
	.db #0xce	; 206
	.db #0xe6	; 230
	.db #0xf2	; 242
	.db #0xf8	; 248
	.db #0xfc	; 252
	.db #0x00	; 0
	.db #0x7f	; 127
	.db #0x3f	; 63
	.db #0x9f	; 159
	.db #0xcf	; 207
	.db #0xc7	; 199
	.db #0xc0	; 192
	.db #0xc0	; 192
	.db #0xc0	; 192
	.db #0xc0	; 192
	.db #0xc0	; 192
	.db #0xc0	; 192
	.db #0xc0	; 192
	.db #0xc0	; 192
	.db #0xc0	; 192
	.db #0xc7	; 199
	.db #0xcf	; 207
	.db #0x9f	; 159
	.db #0x3f	; 63
	.db #0x7f	; 127
	.db #0x00	; 0
	.db #0xfc	; 252
	.db #0xf9	; 249
	.db #0xf3	; 243
	.db #0xe7	; 231
	.db #0xc7	; 199
	.db #0x07	; 7
	.db #0x07	; 7
	.db #0x07	; 7
	.db #0x07	; 7
	.db #0x07	; 7
	.db #0x07	; 7
	.db #0x07	; 7
	.db #0x07	; 7
	.db #0x07	; 7
	.db #0xc7	; 199
	.db #0xe7	; 231
	.db #0xf3	; 243
	.db #0xf9	; 249
	.db #0xfc	; 252
	.db #0x00	; 0
	.db #0x7f	; 127
	.db #0x3f	; 63
	.db #0x9f	; 159
	.db #0xcf	; 207
	.db #0xe7	; 231
	.db #0xf0	; 240
	.db #0xf0	; 240
	.db #0xf8	; 248
	.db #0xf8	; 248
	.db #0xf8	; 248
	.db #0xf8	; 248
	.db #0xf8	; 248
	.db #0xf8	; 248
	.db #0xf0	; 240
	.db #0xe7	; 231
	.db #0xcf	; 207
	.db #0x9f	; 159
	.db #0x3f	; 63
	.db #0x7f	; 127
	.db #0x00	; 0
	.db #0xfc	; 252
	.db #0xf8	; 248
	.db #0xf2	; 242
	.db #0xe6	; 230
	.db #0xce	; 206
	.db #0x1e	; 30
	.db #0x3e	; 62
	.db #0x3e	; 62
	.db #0x3e	; 62
	.db #0x3e	; 62
	.db #0x3e	; 62
	.db #0x3e	; 62
	.db #0x3e	; 62
	.db #0x1e	; 30
	.db #0xce	; 206
	.db #0xe6	; 230
	.db #0xf2	; 242
	.db #0xf8	; 248
	.db #0xfc	; 252
	.db #0x00	; 0
	.db #0x7f	; 127
	.db #0x3f	; 63
	.db #0x9f	; 159
	.db #0xcf	; 207
	.db #0xc7	; 199
	.db #0xc0	; 192
	.db #0xc0	; 192
	.db #0xc0	; 192
	.db #0xc0	; 192
	.db #0xc0	; 192
	.db #0xc0	; 192
	.db #0xc0	; 192
	.db #0xc0	; 192
	.db #0xc0	; 192
	.db #0xc7	; 199
	.db #0xcf	; 207
	.db #0x9f	; 159
	.db #0x3f	; 63
	.db #0x7f	; 127
	.db #0x00	; 0
	.db #0x00	; 0
	.db #0x01	; 1
	.db #0x03	; 3
	.db #0x07	; 7
	.db #0x07	; 7
	.db #0x07	; 7
	.db #0x07	; 7
	.db #0x07	; 7
	.db #0x07	; 7
	.db #0x07	; 7
	.db #0x07	; 7
	.db #0x07	; 7
	.db #0x07	; 7
	.db #0x07	; 7
	.db #0xc7	; 199
	.db #0xe7	; 231
	.db #0xf3	; 243
	.db #0xf9	; 249
	.db #0xfc	; 252
	.db #0x00	; 0
	.db #0x00	; 0
	.db #0x00	; 0
	.db #0x80	; 128
	.db #0xc0	; 192
	.db #0xe0	; 224
	.db #0xf0	; 240
	.db #0xf0	; 240
	.db #0xf8	; 248
	.db #0xf8	; 248
	.db #0xf8	; 248
	.db #0xf8	; 248
	.db #0xf8	; 248
	.db #0xf8	; 248
	.db #0xf0	; 240
	.db #0xe7	; 231
	.db #0xcf	; 207
	.db #0x9f	; 159
	.db #0x3f	; 63
	.db #0x7f	; 127
	.db #0x00	; 0
	.db #0x00	; 0
	.db #0x00	; 0
	.db #0x00	; 0
	.db #0x00	; 0
	.db #0x00	; 0
	.db #0x00	; 0
	.db #0x00	; 0
	.db #0x00	; 0
	.db #0x00	; 0
	.db #0x00	; 0
	.db #0x00	; 0
	.db #0x00	; 0
	.db #0x00	; 0
	.db #0x00	; 0
	.db #0x00	; 0
	.db #0x00	; 0
	.db #0x00	; 0
	.db #0x00	; 0
	.db #0x00	; 0
	.db #0x00	; 0
	.db #0x00	; 0
	.db #0x00	; 0
	.db #0xc0	; 192
	.db #0xc0	; 192
	.db #0xc0	; 192
	.db #0xc0	; 192
	.db #0xc0	; 192
	.db #0xfe	; 254
	.db #0xfe	; 254
	.db #0xfe	; 254
	.db #0xfe	; 254
	.db #0xfe	; 254
	.db #0xc0	; 192
	.db #0xc0	; 192
	.db #0xc0	; 192
	.db #0xc0	; 192
	.db #0xc0	; 192
	.db #0x00	; 0
	.db #0x00	; 0
	.db #0x00	; 0
	.db #0x00	; 0
	.db #0x00	; 0
	.db #0x07	; 7
	.db #0x07	; 7
	.db #0x07	; 7
	.db #0x07	; 7
	.db #0x07	; 7
	.db #0xff	; 255
	.db #0xff	; 255
	.db #0xff	; 255
	.db #0xff	; 255
	.db #0xff	; 255
	.db #0x07	; 7
	.db #0x07	; 7
	.db #0x07	; 7
	.db #0x07	; 7
	.db #0x07	; 7
	.db #0x00	; 0
	.db #0x00	; 0
	.db #0x00	; 0
	.db #0x00	; 0
	.db #0x00	; 0
	.db #0x00	; 0
	.db #0x00	; 0
	.db #0x00	; 0
	.db #0x00	; 0
	.db #0x00	; 0
	.db #0x00	; 0
	.db #0x00	; 0
	.db #0x00	; 0
	.db #0x00	; 0
	.db #0x00	; 0
	.db #0x00	; 0
	.db #0x00	; 0
	.db #0x00	; 0
	.db #0x00	; 0
	.db #0x00	; 0
	.db #0x00	; 0
	.db #0x00	; 0
	.db #0x00	; 0
	.db #0x00	; 0
	.db #0x00	; 0
	.db #0x00	; 0
	.db #0x00	; 0
	.db #0x00	; 0
	.db #0x00	; 0
	.db #0x00	; 0
	.db #0x00	; 0
	.db #0x00	; 0
	.db #0x00	; 0
	.db #0x00	; 0
	.db #0x00	; 0
	.db #0x00	; 0
	.db #0x00	; 0
	.db #0x00	; 0
	.db #0x00	; 0
	.db #0x00	; 0
	.db #0x00	; 0
	.db #0x00	; 0
	.db #0x00	; 0
	.db #0x00	; 0
	.db #0x00	; 0
	.db #0xc0	; 192
	.db #0xc0	; 192
	.db #0xc0	; 192
	.db #0xc0	; 192
	.db #0xc0	; 192
	.db #0xc0	; 192
	.db #0xc0	; 192
	.db #0xc0	; 192
	.db #0xc0	; 192
	.db #0xc0	; 192
	.db #0xc0	; 192
	.db #0xc0	; 192
	.db #0xc0	; 192
	.db #0xc0	; 192
	.db #0xc0	; 192
	.db #0x00	; 0
	.db #0x00	; 0
	.db #0x00	; 0
	.db #0x00	; 0
	.db #0x00	; 0
	.db #0x07	; 7
	.db #0x07	; 7
	.db #0x07	; 7
	.db #0x07	; 7
	.db #0x07	; 7
	.db #0x07	; 7
	.db #0x07	; 7
	.db #0x07	; 7
	.db #0x07	; 7
	.db #0x07	; 7
	.db #0x07	; 7
	.db #0x07	; 7
	.db #0x07	; 7
	.db #0x07	; 7
	.db #0x07	; 7
	.db #0x00	; 0
	.db #0x00	; 0
	.db #0x00	; 0
	.db #0x00	; 0
	.db #0x00	; 0
	.db #0x00	; 0
	.db #0x00	; 0
	.db #0x00	; 0
	.db #0x00	; 0
	.db #0x00	; 0
	.db #0x00	; 0
	.db #0x00	; 0
	.db #0x00	; 0
	.db #0x00	; 0
	.db #0x00	; 0
	.db #0x00	; 0
	.db #0x00	; 0
	.db #0x00	; 0
	.db #0x00	; 0
	.db #0x00	; 0
	.db #0x00	; 0
	.db #0x00	; 0
	.db #0x00	; 0
	.db #0x00	; 0
	.db #0x00	; 0
	.db #0x00	; 0
	.db #0x00	; 0
	.db #0x00	; 0
	.db #0x00	; 0
	.db #0x00	; 0
	.db #0x00	; 0
	.db #0x00	; 0
	.db #0x00	; 0
	.db #0x00	; 0
	.db #0x00	; 0
	.db #0x00	; 0
	.db #0x00	; 0
	.db #0x00	; 0
	.db #0x00	; 0
	.db #0x00	; 0
	.db #0x00	; 0
	.db #0x00	; 0
	.db #0x00	; 0
	.db #0x00	; 0
	.db #0x00	; 0
	.db #0x00	; 0
	.db #0x00	; 0
	.db #0x00	; 0
	.db #0x00	; 0
	.db #0x00	; 0
	.db #0x00	; 0
	.db #0x00	; 0
	.db #0x00	; 0
	.db #0x00	; 0
	.db #0x00	; 0
	.db #0x00	; 0
	.db #0x00	; 0
	.db #0x00	; 0
	.db #0x00	; 0
	.db #0x00	; 0
	.db #0x00	; 0
	.db #0x00	; 0
	.db #0x00	; 0
	.db #0x00	; 0
	.db #0x00	; 0
	.db #0x00	; 0
	.db #0x00	; 0
	.db #0x00	; 0
	.db #0x00	; 0
	.db #0x00	; 0
	.db #0x00	; 0
	.db #0x00	; 0
	.db #0x00	; 0
	.db #0x00	; 0
	.db #0x00	; 0
	.db #0x00	; 0
	.db #0x00	; 0
	.db #0x00	; 0
	.db #0x00	; 0
	.db #0x00	; 0
	.db #0x00	; 0
	.db #0x00	; 0
	.db #0x00	; 0
	.db #0x00	; 0
	.db #0x00	; 0
	.db #0x00	; 0
	.db #0x00	; 0
	.db #0x3e	; 62
	.db #0x3e	; 62
	.db #0x3e	; 62
	.db #0x3e	; 62
	.db #0x3e	; 62
	.db #0x00	; 0
	.db #0x00	; 0
	.db #0x00	; 0
	.db #0x00	; 0
	.db #0x00	; 0
	.db #0x00	; 0
	.db #0x00	; 0
	.db #0x00	; 0
	.db #0x00	; 0
	.db #0x00	; 0
	.area INITIALIZER
	.area CABS (ABS)
